(dp0
(I0
I27
I0
tp1
(I0
I28
tp2
s(I0
I1
I1
tp3
(I1
I32
tp4
s(I0
I24
I1
tp5
(I1
I25
tp6
s(I0
I14
I0
tp7
(I0
I17
tp8
s(I0
I21
I0
tp9
(I0
I22
tp10
s(I0
I27
I1
tp11
(I1
I4
tp12
s(I0
I18
I1
tp13
(I1
I19
tp14
s(I0
I24
I0
tp15
(I0
I7
tp16
s(I0
I21
I1
tp17
(I1
I10
tp18
s(I0
I11
I0
tp19
(I0
I10
tp20
s(I0
I18
I0
tp21
(I0
I13
tp22
s(I0
I8
I1
tp23
(I1
I9
tp24
s(I0
I5
I0
tp25
(I0
I4
tp26
s(I0
I11
I1
tp27
(I1
I22
tp28
s(I0
I2
I1
tp29
(I1
I3
tp30
s(I0
I8
I0
tp31
(I0
I23
tp32
s(I0
I31
I0
tp33
(I0
I32
tp34
s(I0
I5
I1
tp35
(I1
I28
tp36
s(I0
I28
I1
tp37
(I1
I29
tp38
s(I0
I2
I0
tp39
(I0
I29
tp40
s(I0
I31
I1
tp41
(I1
I0
tp42
s(I0
I22
I1
tp43
(I1
I23
tp44
s(I0
I28
I0
tp45
(I0
I3
tp46
s(I0
I15
I0
tp47
(I0
I14
tp48
s(I0
I22
I0
tp49
(I0
I9
tp50
s(I0
I12
I1
tp51
(I1
I13
tp52
s(I0
I25
I0
tp53
(I0
I26
tp54
s(I0
I15
I1
tp55
(I1
I18
tp56
s(I0
I6
I1
tp57
(I1
I7
tp58
s(I0
I12
I0
tp59
(I0
I19
tp60
s(I0
I19
I0
tp61
(I0
I20
tp62
s(I0
I25
I1
tp63
(I1
I6
tp64
s(I0
I16
I1
tp65
(I1
I17
tp66
s(I0
I6
I0
tp67
(I0
I25
tp68
s(I0
I19
I1
tp69
(I1
I12
tp70
s(I0
I9
I0
tp71
(I0
I8
tp72
s(I0
I16
I0
tp73
(I0
I15
tp74
sS'ncols'
p75
I2
s(I0
I3
I0
tp76
(I0
I2
tp77
s(I0
I9
I1
tp78
(I1
I24
tp79
s(I0
I0
I1
tp80
(I1
I1
tp81
s(I0
I29
I0
tp82
(I0
I30
tp83
s(I0
I3
I1
tp84
(I1
I30
tp85
sS'nrows'
p86
I32
s(I0
I26
I1
tp87
(I1
I27
tp88
s(I0
I0
I0
tp89
(I0
I31
tp90
s(I0
I23
I0
tp91
(I0
I24
tp92
s(I0
I29
I1
tp93
(I1
I2
tp94
sS'nshanks'
p95
I1
s(I0
I20
I1
tp96
(I1
I21
tp97
s(I0
I26
I0
tp98
(I0
I5
tp99
s(I0
I23
I1
tp100
(I1
I8
tp101
s(I0
I13
I0
tp102
(I0
I12
tp103
s(I0
I20
I0
tp104
(I0
I11
tp105
s(I0
I10
I1
tp106
(I1
I11
tp107
s(I0
I7
I0
tp108
(I0
I6
tp109
s(I0
I13
I1
tp110
(I1
I20
tp111
s(I0
I4
I1
tp112
(I1
I5
tp113
s(I0
I10
I0
tp114
(I0
I21
tp115
s(I0
I17
I0
tp116
(I0
I18
tp117
s(I0
I7
I1
tp118
(I1
I26
tp119
s(I0
I30
I1
tp120
(I1
I31
tp121
s(I0
I4
I0
tp122
(I0
I27
tp123
s(I0
I17
I1
tp124
(I1
I14
tp125
s(I0
I30
I0
tp126
(I0
I1
tp127
s(I0
I1
I0
tp128
(I0
I0
tp129
s(I0
I14
I1
tp130
(I1
I15
tp131
s.