(dp0
(I1
I19
I0
tp1
(I6
I25
tp2
s(I0
I24
I1
tp3
(I0
I14
tp4
s(I0
I27
I1
tp5
(I0
I8
tp6
s(I1
I10
I1
tp7
(I7
I29
tp8
s(I1
I30
I0
tp9
(I6
I3
tp10
s(I1
I4
I2
tp11
(I2
I25
tp12
s(I1
I10
I3
tp13
(I2
I13
tp14
s(I1
I25
I0
tp15
(I6
I13
tp16
s(I0
I2
I1
tp17
(I0
I23
tp18
s(I1
I30
I2
tp19
(I3
I30
tp20
s(I0
I5
I1
tp21
(I0
I25
tp22
s(I1
I7
I2
tp23
(I2
I27
tp24
s(I0
I12
I3
tp25
(I4
I31
tp26
s(I1
I11
I0
tp27
(I7
I2
tp28
s(I1
I4
I0
tp29
(I7
I9
tp30
s(I0
I15
I3
tp31
(I4
I17
tp32
s(I1
I25
I2
tp33
(I3
I20
tp34
s(I0
I2
I3
tp35
(I4
I21
tp36
s(I0
I19
I2
tp37
(I5
I26
tp38
s(I0
I5
I3
tp39
(I4
I24
tp40
s(I0
I22
I0
tp41
(I1
I12
tp42
s(I1
I7
I0
tp43
(I7
I6
tp44
s(I0
I12
I1
tp45
(I1
I1
tp46
s(I0
I15
I1
tp47
(I0
I1
tp48
s(I0
I16
I2
tp49
(I5
I32
tp50
s(I0
I19
I0
tp51
(I1
I6
tp52
s(I1
I2
I0
tp53
(I7
I11
tp54
s(I0
I22
I2
tp55
(I5
I20
tp56
s(I1
I8
I2
tp57
(I3
I5
tp58
s(I0
I16
I0
tp59
(I1
I0
tp60
s(I1
I13
I0
tp61
(I7
I0
tp62
s(I1
I2
I2
tp63
(I3
I9
tp64
s(I0
I9
I1
tp65
(I1
I3
tp66
s(I1
I17
I1
tp67
(I6
I2
tp68
s(I1
I22
I1
tp69
(I6
I12
tp70
s(I0
I29
I0
tp71
(I1
I28
tp72
s(I1
I8
I0
tp73
(I7
I5
tp74
s(I1
I31
I3
tp75
(I2
I0
tp76
s(I1
I13
I2
tp77
(I2
I31
tp78
s(I1
I28
I3
tp79
(I2
I6
tp80
s(I0
I7
I2
tp81
(I4
I11
tp82
s(I0
I9
I3
tp83
(I4
I28
tp84
s(I1
I17
I3
tp85
(I2
I30
tp86
s(I0
I26
I0
tp87
(I1
I22
tp88
s(I1
I22
I3
tp89
(I2
I20
tp90
s(I0
I29
I2
tp91
(I5
I4
tp92
s(I1
I31
I1
tp93
(I6
I32
tp94
s(I0
I4
I2
tp95
(I4
I9
tp96
s(I1
I28
I1
tp97
(I6
I26
tp98
s(I0
I7
I0
tp99
(I0
I9
tp100
s(I0
I26
I2
tp101
(I5
I10
tp102
s(I1
I11
I1
tp103
(I7
I20
tp104
s(I0
I4
I0
tp105
(I1
I25
tp106
s(I1
I5
I1
tp107
(I7
I24
tp108
s(I1
I26
I1
tp109
(I6
I22
tp110
s(I0
I1
I0
tp111
(I0
I3
tp112
s(I1
I3
I3
tp113
(I3
I27
tp114
s(I1
I0
I3
tp115
(I2
I3
tp116
s(I0
I11
I2
tp117
(I4
I12
tp118
s(I1
I5
I3
tp119
(I3
I25
tp120
s(I0
I14
I0
tp121
(I1
I15
tp122
s(I1
I20
I2
tp123
(I3
I8
tp124
s(I1
I26
I3
tp125
(I2
I10
tp126
s(I0
I1
I2
tp127
(I4
I7
tp128
s(I0
I18
I1
tp129
(I0
I28
tp130
s(I1
I3
I1
tp131
(I7
I23
tp132
s(I0
I21
I1
tp133
(I0
I22
tp134
s(I1
I0
I1
tp135
(I7
I25
tp136
s(I0
I11
I0
tp137
(I0
I13
tp138
s(I1
I23
I2
tp139
(I3
I14
tp140
s(I0
I28
I3
tp141
(I5
I25
tp142
s(I0
I14
I2
tp143
(I4
I14
tp144
s(I1
I20
I0
tp145
(I6
I23
tp146
s(I0
I31
I3
tp147
(I5
I31
tp148
s(I0
I18
I3
tp149
(I5
I5
tp150
s(I0
I21
I3
tp151
(I5
I11
tp152
s(I1
I23
I0
tp153
(I6
I17
tp154
s(I0
I28
I1
tp155
(I0
I6
tp156
s(I1
I9
I1
tp157
(I7
I19
tp158
s(I0
I31
I1
tp159
(I0
I0
tp160
s(I1
I14
I1
tp161
(I7
I18
tp162
s(I1
I18
I0
tp163
(I6
I27
tp164
s(I1
I9
I3
tp165
(I3
I21
tp166
s(I1
I24
I2
tp167
(I3
I18
tp168
s(I1
I14
I3
tp169
(I2
I17
tp170
s(I1
I29
I0
tp171
(I6
I5
tp172
s(I0
I6
I1
tp173
(I1
I5
tp174
s(I1
I18
I2
tp175
(I3
I4
tp176
s(I0
I25
I1
tp177
(I0
I12
tp178
s(I1
I27
I2
tp179
(I3
I24
tp180
s(I0
I0
I3
tp181
(I4
I19
tp182
s(I1
I24
I0
tp183
(I6
I15
tp184
s(I0
I3
I3
tp185
(I4
I22
tp186
s(I1
I29
I2
tp187
(I3
I28
tp188
s(I0
I6
I3
tp189
(I4
I25
tp190
s(I0
I23
I2
tp191
(I5
I18
tp192
s(I0
I25
I3
tp193
(I5
I19
tp194
s(I1
I27
I0
tp195
(I6
I9
tp196
s(I0
I0
I1
tp197
(I1
I9
tp198
s(I0
I3
I1
tp199
(I1
I7
tp200
s(I0
I20
I2
tp201
(I5
I24
tp202
s(I0
I23
I0
tp203
(I1
I14
tp204
s(I1
I6
I0
tp205
(I7
I7
tp206
sS'nshanks'
p207
I2
s(I1
I12
I2
tp208
(I3
I15
tp209
s(I0
I20
I0
tp210
(I1
I8
tp211
s(I1
I1
I0
tp212
(I7
I12
tp213
s(I0
I10
I1
tp214
(I1
I13
tp215
s(I1
I6
I2
tp216
(I3
I13
tp217
s(I0
I13
I1
tp218
(I0
I17
tp219
s(I1
I21
I1
tp220
(I6
I10
tp221
s(I1
I15
I2
tp222
(I3
I31
tp223
s(I0
I17
I0
tp224
(I1
I2
tp225
s(I1
I12
I0
tp226
(I7
I1
tp227
s(I1
I19
I3
tp228
(I2
I26
tp229
s(I1
I1
I2
tp230
(I2
I23
tp231
s(I0
I10
I3
tp232
(I4
I29
tp233
s(I1
I16
I3
tp234
(I2
I32
tp235
s(I0
I27
I2
tp236
(I5
I8
tp237
s(I0
I13
I3
tp238
(I4
I32
tp239
s(I1
I21
I3
tp240
(I2
I22
tp241
s(I0
I30
I0
tp242
(I1
I30
tp243
s(I1
I15
I0
tp244
(I7
I15
tp245
s(I0
I17
I2
tp246
(I5
I30
tp247
s(I1
I19
I1
tp248
(I6
I6
tp249
s(I0
I24
I2
tp250
(I5
I14
tp251
s(I1
I16
I1
tp252
(I6
I0
tp253
s(I0
I27
I0
tp254
(I1
I24
tp255
s(I1
I10
I0
tp256
(I7
I3
tp257
s(I0
I30
I2
tp258
(I5
I2
tp259
s(I0
I24
I0
tp260
(I1
I18
tp261
s(I1
I10
I2
tp262
(I2
I29
tp263
s(I1
I25
I1
tp264
(I6
I20
tp265
s(I1
I30
I1
tp266
(I6
I30
tp267
s(I0
I5
I0
tp268
(I0
I7
tp269
s(I1
I7
I3
tp270
(I3
I23
tp271
s(I1
I4
I3
tp272
(I2
I7
tp273
s(I0
I15
I2
tp274
(I4
I18
tp275
s(I1
I25
I3
tp276
(I2
I12
tp277
s(I0
I2
I0
tp278
(I1
I27
tp279
s(I1
I30
I3
tp280
(I2
I2
tp281
s(I0
I5
I2
tp282
(I4
I8
tp283
s(I0
I8
I3
tp284
(I4
I27
tp285
s(I0
I22
I1
tp286
(I0
I20
tp287
s(I1
I7
I1
tp288
(I7
I30
tp289
s(I0
I12
I2
tp290
(I4
I0
tp291
s(I1
I4
I1
tp292
(I7
I27
tp293
s(I0
I15
I0
tp294
(I1
I31
tp295
s(I0
I16
I3
tp296
(I5
I1
tp297
s(I0
I2
I2
tp298
(I4
I6
tp299
s(I0
I19
I3
tp300
(I5
I7
tp301
s(I0
I22
I3
tp302
(I5
I13
tp303
s(I0
I23
I1
tp304
(I0
I18
tp305
s(I0
I12
I0
tp306
(I1
I17
tp307
s(I0
I16
I1
tp308
(I0
I32
tp309
s(I1
I13
I1
tp310
(I7
I32
tp311
s(I0
I19
I1
tp312
(I0
I26
tp313
s(I1
I2
I1
tp314
(I7
I26
tp315
s(I0
I9
I0
tp316
(I0
I11
tp317
s(I1
I11
I3
tp318
(I3
I19
tp319
s(I1
I8
I3
tp320
(I2
I11
tp321
s(I1
I13
I3
tp322
(I3
I17
tp323
s(I1
I28
I2
tp324
(I3
I26
tp325
s(I0
I8
I2
tp326
(I4
I10
tp327
s(I0
I9
I2
tp328
(I4
I3
tp329
s(I1
I17
I0
tp330
(I6
I29
tp331
s(I0
I26
I1
tp332
(I0
I10
tp333
s(I1
I22
I2
tp334
(I3
I12
tp335
s(I0
I29
I1
tp336
(I0
I4
tp337
s(I1
I8
I1
tp338
(I7
I22
tp339
s(I1
I31
I2
tp340
(I3
I32
tp341
s(I0
I4
I3
tp342
(I4
I23
tp343
s(I1
I28
I0
tp344
(I6
I7
tp345
s(I0
I7
I3
tp346
(I4
I26
tp347
s(I1
I17
I2
tp348
(I3
I2
tp349
s(I0
I26
I3
tp350
(I5
I21
tp351
s(I0
I29
I3
tp352
(I5
I27
tp353
s(I1
I31
I0
tp354
(I6
I1
tp355
s(I0
I4
I1
tp356
(I1
I11
tp357
s(I0
I7
I1
tp358
(I0
I19
tp359
s(I1
I26
I0
tp360
(I6
I11
tp361
s(I0
I21
I2
tp362
(I5
I22
tp363
s(I1
I0
I2
tp364
(I3
I11
tp365
s(I1
I5
I0
tp366
(I7
I8
tp367
s(I0
I14
I1
tp368
(I0
I31
tp369
s(I1
I26
I2
tp370
(I3
I22
tp371
s(I0
I1
I1
tp372
(I0
I21
tp373
s(I1
I3
I2
tp374
(I2
I21
tp375
s(I0
I21
I0
tp376
(I1
I10
tp377
s(I1
I0
I0
tp378
(I7
I13
tp379
s(I0
I11
I3
tp380
(I4
I30
tp381
s(I1
I23
I3
tp382
(I2
I18
tp383
s(I1
I5
I2
tp384
(I3
I7
tp385
s(I0
I14
I3
tp386
(I4
I1
tp387
s(I1
I20
I3
tp388
(I2
I24
tp389
s(I0
I31
I2
tp390
(I5
I0
tp391
s(I0
I1
I3
tp392
(I4
I20
tp393
s(I0
I18
I0
tp394
(I1
I4
tp395
s(I1
I3
I0
tp396
(I7
I10
tp397
s(I0
I8
I1
tp398
(I0
I27
tp399
s(I0
I11
I1
tp400
(I0
I29
tp401
s(I1
I23
I1
tp402
(I6
I14
tp403
s(I0
I28
I2
tp404
(I5
I6
tp405
s(I1
I20
I1
tp406
(I6
I8
tp407
s(I0
I31
I0
tp408
(I1
I32
tp409
s(I1
I14
I0
tp410
(I7
I31
tp411
s(I0
I18
I2
tp412
(I5
I28
tp413
s(I0
I8
I0
tp414
(I1
I21
tp415
s(I1
I22
I0
tp416
(I6
I19
tp417
s(I0
I28
I0
tp418
(I1
I26
tp419
s(I1
I9
I0
tp420
(I7
I4
tp421
s(I1
I14
I2
tp422
(I3
I1
tp423
s(I1
I29
I1
tp424
(I6
I28
tp425
s(I1
I18
I1
tp426
(I6
I4
tp427
s(I0
I25
I0
tp428
(I1
I20
tp429
s(I1
I27
I3
tp430
(I2
I8
tp431
s(I1
I9
I2
tp432
(I2
I19
tp433
s(I1
I24
I3
tp434
(I2
I14
tp435
s(I0
I3
I2
tp436
(I4
I5
tp437
s(I1
I29
I3
tp438
(I2
I4
tp439
s(I0
I6
I0
tp440
(I1
I23
tp441
s(I1
I18
I3
tp442
(I2
I28
tp443
s(I0
I25
I2
tp444
(I5
I12
tp445
s(I1
I27
I1
tp446
(I6
I24
tp447
s(I0
I0
I2
tp448
(I4
I4
tp449
sS'ncols'
p450
I4
s(I1
I24
I1
tp451
(I6
I18
tp452
s(I0
I3
I0
tp453
(I0
I5
tp454
s(I0
I20
I3
tp455
(I5
I9
tp456
s(I0
I6
I2
tp457
(I4
I2
tp458
s(I0
I23
I3
tp459
(I5
I15
tp460
s(I1
I11
I2
tp461
(I3
I3
tp462
s(I0
I0
I0
tp463
(I1
I29
tp464
s(I0
I20
I1
tp465
(I0
I24
tp466
s(I1
I1
I1
tp467
(I7
I28
tp468
s(I1
I2
I3
tp469
(I2
I5
tp470
s(I1
I6
I1
tp471
(I7
I21
tp472
s(I0
I13
I0
tp473
(I0
I15
tp474
sS'nrows'
p475
I32
s(I1
I15
I3
tp476
(I2
I1
tp477
s(I1
I12
I3
tp478
(I2
I15
tp479
s(I1
I1
I3
tp480
(I3
I29
tp481
s(I0
I10
I0
tp482
(I1
I19
tp483
s(I1
I16
I2
tp484
(I3
I0
tp485
s(I1
I6
I3
tp486
(I2
I9
tp487
s(I0
I13
I2
tp488
(I4
I15
tp489
s(I1
I21
I0
tp490
(I6
I21
tp491
s(I0
I30
I1
tp492
(I0
I2
tp493
s(I1
I15
I1
tp494
(I7
I14
tp495
s(I0
I17
I1
tp496
(I0
I30
tp497
s(I1
I12
I1
tp498
(I7
I17
tp499
s(I1
I19
I2
tp500
(I3
I6
tp501
s(I0
I24
I3
tp502
(I5
I17
tp503
s(I0
I10
I2
tp504
(I4
I13
tp505
s(I1
I16
I0
tp506
(I6
I31
tp507
s(I0
I27
I3
tp508
(I5
I23
tp509
s(I1
I21
I2
tp510
(I3
I10
tp511
s(I0
I30
I3
tp512
(I5
I29
tp513
s(I0
I17
I3
tp514
(I5
I3
tp515
s.