(dp0
(I3
I66
I0
tp1
(I29
I13
tp2
s(I2
I86
I0
tp3
(I10
I15
tp4
s(I1
I77
I0
tp5
(I25
I18
tp6
s(I1
I53
I1
tp7
(I3
I32
tp8
s(I0
I27
I1
tp9
(I1
I0
tp10
s(I0
I67
I0
tp11
(I16
I0
tp12
s(I2
I33
I1
tp13
(I20
I12
tp14
s(I1
I86
I1
tp15
(I11
I6
tp16
s(I1
I30
I0
tp17
(I26
I4
tp18
s(I4
I95
I1
tp19
(I31
I10
tp20
s(I3
I32
I0
tp21
(I5
I22
tp22
s(I1
I47
I0
tp23
(I26
I29
tp24
s(I0
I2
I1
tp25
(I0
I8
tp26
s(I2
I40
I1
tp27
(I20
I19
tp28
s(I1
I48
I1
tp29
(I3
I26
tp30
s(I1
I95
I1
tp31
(I11
I2
tp32
s(I4
I30
I0
tp33
(I7
I4
tp34
s(I4
I86
I1
tp35
(I31
I13
tp36
s(I3
I97
I1
tp37
(I30
I22
tp38
s(I2
I51
I0
tp39
(I19
I12
tp40
s(I4
I77
I0
tp41
(I22
I22
tp42
s(I0
I56
I0
tp43
(I16
I19
tp44
s(I0
I96
I1
tp45
(I17
I10
tp46
s(I2
I66
I0
tp47
(I27
I8
tp48
s(I1
I57
I1
tp49
(I2
I29
tp50
s(I0
I15
I1
tp51
(I0
I17
tp52
s(I3
I7
I0
tp53
(I5
I3
tp54
s(I2
I45
I1
tp55
(I20
I15
tp56
s(I1
I90
I1
tp57
(I3
I29
tp58
s(I1
I2
I0
tp59
(I18
I3
tp60
s(I4
I12
I1
tp61
(I14
I13
tp62
s(I3
I52
I0
tp63
(I29
I2
tp64
s(I0
I54
I1
tp65
(I9
I4
tp66
s(I2
I84
I1
tp67
(I11
I20
tp68
s(I1
I36
I1
tp69
(I3
I1
tp70
s(I1
I67
I1
tp71
(I2
I19
tp72
s(I4
I42
I0
tp73
(I15
I22
tp74
s(I0
I29
I0
tp75
(I24
I5
tp76
s(I2
I63
I0
tp77
(I27
I12
tp78
s(I1
I84
I0
tp79
(I17
I3
tp80
s(I4
I1
I1
tp81
(I14
I20
tp82
s(I4
I89
I0
tp83
(I22
I23
tp84
s(I0
I44
I0
tp85
(I24
I22
tp86
s(I2
I78
I0
tp87
(I27
I23
tp88
s(I1
I101
I0
tp89
(I17
I4
tp90
s(I1
I45
I1
tp91
(I3
I14
tp92
s(I0
I51
I1
tp93
(I1
I15
tp94
s(I3
I27
I0
tp95
(I5
I12
tp96
s(I2
I89
I1
tp97
(I12
I10
tp98
s(I1
I78
I1
tp99
(I10
I14
tp100
s(I1
I54
I0
tp101
(I25
I12
tp102
s(I4
I24
I1
tp103
(I31
I26
tp104
s(I0
I58
I1
tp105
(I9
I0
tp106
s(I2
I24
I0
tp107
(I11
I26
tp108
s(I2
I64
I1
tp109
(I28
I31
tp110
s(I1
I40
I1
tp111
(I3
I0
tp112
s(I4
I38
I0
tp113
(I7
I7
tp114
s(I0
I1
I0
tp115
(I0
I12
tp116
s(I3
I9
I1
tp117
(I13
I0
tp118
s(I2
I43
I0
tp119
(I19
I28
tp120
s(I1
I88
I0
tp121
(I17
I21
tp122
s(I4
I29
I1
tp123
(I23
I13
tp124
s(I4
I85
I0
tp125
(I22
I10
tp126
s(I0
I80
I0
tp127
(I16
I26
tp128
s(I0
I23
I0
tp129
(I24
I6
tp130
s(I0
I39
I1
tp131
(I1
I22
tp132
s(I3
I47
I0
tp133
(I29
I26
tp134
s(I2
I69
I1
tp135
(I28
I32
tp136
s(I1
I58
I0
tp137
(I25
I8
tp138
s(I4
I20
I1
tp139
(I31
I30
tp140
s(I3
I4
I1
tp141
(I13
I8
tp142
s(I4
I3
I0
tp143
(I14
I10
tp144
s(I0
I46
I1
tp145
(I1
I3
tp146
s(I2
I4
I0
tp147
(I27
I5
tp148
s(I2
I76
I1
tp149
(I28
I13
tp150
s(I4
I50
I0
tp151
(I15
I30
tp152
s(I0
I53
I0
tp153
(I16
I9
tp154
s(I3
I69
I0
tp155
(I29
I3
tp156
s(I3
I29
I1
tp157
(I21
I10
tp158
s(I2
I87
I0
tp159
(I10
I3
tp160
s(I1
I76
I0
tp161
(I25
I24
tp162
s(I4
I41
I1
tp163
(I23
I6
tp164
s(I4
I97
I0
tp165
(I22
I11
tp166
s(I0
I68
I0
tp167
(I16
I12
tp168
s(I0
I100
I1
tp169
(I17
I6
tp170
s(I1
I29
I0
tp171
(I26
I6
tp172
s(I0
I43
I1
tp173
(I1
I32
tp174
s(I3
I35
I0
tp175
(I21
I25
tp176
s(I2
I22
I1
tp177
(I20
I20
tp178
s(I1
I46
I0
tp179
(I26
I21
tp180
s(I4
I32
I1
tp181
(I23
I31
tp182
s(I3
I24
I1
tp183
(I13
I1
tp184
s(I4
I31
I0
tp185
(I6
I32
tp186
s(I0
I82
I1
tp187
(I9
I7
tp188
s(I2
I48
I0
tp189
(I19
I20
tp190
s(I4
I78
I0
tp191
(I22
I14
tp192
s(I0
I57
I0
tp193
(I16
I13
tp194
s(I3
I89
I0
tp195
(I4
I12
tp196
s(I3
I17
I1
tp197
(I13
I19
tp198
s(I2
I27
I1
tp199
(I20
I28
tp200
s(I2
I67
I0
tp201
(I27
I18
tp202
s(I4
I37
I1
tp203
(I23
I23
tp204
s(I0
I72
I0
tp205
(I16
I8
tp206
s(I3
I6
I0
tp207
(I5
I15
tp208
s(I3
I88
I0
tp209
(I4
I0
tp210
s(I1
I1
I0
tp211
(I18
I5
tp212
s(I0
I95
I1
tp213
(I17
I32
tp214
s(I3
I55
I0
tp215
(I29
I25
tp216
s(I2
I2
I1
tp217
(I12
I29
tp218
s(I4
I60
I1
tp219
(I15
I17
tp220
s(I3
I44
I1
tp221
(I21
I7
tp222
s(I3
I71
I1
tp223
(I6
I20
tp224
s(I4
I28
I0
tp225
(I7
I6
tp226
s(I4
I43
I0
tp227
(I15
I12
tp228
s(I0
I30
I0
tp229
(I24
I9
tp230
s(I0
I70
I1
tp231
(I9
I24
tp232
s(I2
I60
I0
tp233
(I19
I27
tp234
s(I2
I100
I1
tp235
(I4
I17
tp236
s(I1
I19
I1
tp237
(I10
I27
tp238
s(I4
I90
I0
tp239
(I22
I21
tp240
s(I0
I45
I0
tp241
(I24
I20
tp242
s(I3
I37
I1
tp243
(I21
I28
tp244
s(I2
I7
I1
tp245
(I12
I17
tp246
s(I2
I79
I0
tp247
(I27
I27
tp248
s(I1
I100
I0
tp249
(I17
I29
tp250
s(I4
I49
I1
tp251
(I23
I22
tp252
s(I3
I66
I1
tp253
(I6
I28
tp254
s(I3
I26
I0
tp255
(I5
I4
tp256
s(I3
I86
I0
tp257
(I4
I2
tp258
s(I1
I53
I0
tp259
(I25
I2
tp260
s(I0
I67
I1
tp261
(I9
I12
tp262
s(I2
I14
I1
tp263
(I12
I3
tp264
s(I1
I30
I1
tp265
(I2
I10
tp266
s(I4
I72
I1
tp267
(I15
I8
tp268
s(I3
I32
I1
tp269
(I21
I6
tp270
s(I3
I91
I1
tp271
(I30
I10
tp272
s(I2
I25
I0
tp273
(I11
I1
tp274
s(I4
I39
I0
tp275
(I7
I5
tp276
s(I0
I2
I0
tp277
(I0
I25
tp278
s(I0
I74
I1
tp279
(I9
I29
tp280
s(I2
I40
I0
tp281
(I11
I19
tp282
s(I1
I95
I0
tp283
(I17
I23
tp284
s(I1
I7
I1
tp285
(I18
I18
tp286
s(I4
I86
I0
tp287
(I22
I2
tp288
s(I0
I81
I0
tp289
(I8
I0
tp290
s(I3
I97
I0
tp291
(I4
I11
tp292
s(I3
I57
I1
tp293
(I30
I1
tp294
s(I2
I51
I1
tp295
(I28
I8
tp296
s(I4
I77
I1
tp297
(I31
I21
tp298
s(I0
I96
I0
tp299
(I8
I27
tp300
s(I3
I46
I0
tp301
(I21
I31
tp302
s(I1
I57
I0
tp303
(I25
I6
tp304
s(I0
I16
I1
tp305
(I0
I23
tp306
s(I2
I58
I1
tp307
(I28
I14
tp308
s(I1
I2
I1
tp309
(I18
I12
tp310
s(I4
I12
I0
tp311
(I6
I15
tp312
s(I4
I68
I1
tp313
(I15
I3
tp314
s(I3
I52
I1
tp315
(I30
I9
tp316
s(I2
I5
I0
tp317
(I27
I15
tp318
s(I4
I51
I0
tp319
(I7
I31
tp320
s(I0
I54
I0
tp321
(I16
I21
tp322
s(I3
I68
I0
tp323
(I29
I11
tp324
s(I2
I84
I0
tp325
(I27
I17
tp326
s(I1
I67
I0
tp327
(I25
I15
tp328
s(I1
I11
I1
tp329
(I18
I22
tp330
s(I4
I98
I0
tp331
(I22
I7
tp332
s(I0
I69
I0
tp333
(I16
I2
tp334
s(I2
I63
I1
tp335
(I28
I26
tp336
s(I1
I84
I1
tp337
(I11
I8
tp338
s(I1
I28
I0
tp339
(I26
I10
tp340
s(I4
I89
I1
tp341
(I31
I0
tp342
s(I3
I88
I1
tp343
(I30
I20
tp344
s(I3
I34
I0
tp345
(I21
I23
tp346
s(I1
I45
I0
tp347
(I26
I27
tp348
s(I0
I4
I1
tp349
(I0
I6
tp350
s(I2
I38
I1
tp351
(I20
I21
tp352
s(I1
I54
I1
tp353
(I3
I20
tp354
s(I1
I93
I1
tp355
(I11
I0
tp356
s(I4
I24
I0
tp357
(I6
I25
tp358
s(I4
I80
I1
tp359
(I31
I25
tp360
s(I3
I99
I1
tp361
(I30
I24
tp362
s(I2
I49
I0
tp363
(I19
I10
tp364
s(I4
I79
I0
tp365
(I22
I24
tp366
s(I0
I58
I0
tp367
(I16
I17
tp368
s(I0
I98
I1
tp369
(I17
I8
tp370
s(I2
I64
I0
tp371
(I27
I10
tp372
s(I1
I63
I1
tp373
(I2
I15
tp374
s(I0
I1
I1
tp375
(I0
I2
tp376
s(I0
I73
I0
tp377
(I16
I6
tp378
s(I3
I9
I0
tp379
(I5
I5
tp380
s(I2
I43
I1
tp381
(I20
I13
tp382
s(I1
I88
I1
tp383
(I11
I4
tp384
s(I1
I0
I0
tp385
(I18
I2
tp386
s(I4
I85
I1
tp387
(I31
I9
tp388
s(I4
I14
I1
tp389
(I14
I11
tp390
s(I3
I54
I0
tp391
(I29
I0
tp392
s(I0
I8
I1
tp393
(I0
I11
tp394
s(I2
I82
I1
tp395
(I11
I22
tp396
s(I1
I58
I1
tp397
(I2
I23
tp398
s(I1
I65
I1
tp399
(I2
I17
tp400
s(I4
I20
I0
tp401
(I6
I29
tp402
s(I0
I31
I0
tp403
(I24
I7
tp404
s(I2
I61
I0
tp405
(I27
I4
tp406
s(I4
I3
I1
tp407
(I14
I0
tp408
s(I4
I91
I0
tp409
(I22
I25
tp410
s(I0
I46
I0
tp411
(I16
I7
tp412
s(I2
I76
I0
tp413
(I27
I22
tp414
s(I1
I35
I1
tp415
(I3
I5
tp416
s(I0
I53
I1
tp417
(I1
I17
tp418
s(I3
I29
I0
tp419
(I5
I14
tp420
s(I2
I87
I1
tp421
(I12
I8
tp422
s(I1
I76
I1
tp423
(I10
I18
tp424
s(I1
I52
I0
tp425
(I25
I14
tp426
s(I4
I97
I1
tp427
(I31
I12
tp428
s(I4
I26
I1
tp429
(I23
I21
tp430
s(I0
I60
I1
tp431
(I1
I31
tp432
s(I2
I22
I0
tp433
(I11
I28
tp434
s(I2
I94
I1
tp435
(I4
I3
tp436
s(I1
I46
I1
tp437
(I3
I4
tp438
s(I4
I32
I0
tp439
(I7
I2
tp440
s(I0
I3
I0
tp441
(I0
I27
tp442
s(I3
I11
I1
tp443
(I13
I2
tp444
s(I2
I41
I0
tp445
(I11
I31
tp446
s(I1
I94
I0
tp447
(I17
I2
tp448
s(I4
I31
I1
tp449
(I23
I15
tp450
s(I4
I87
I0
tp451
(I22
I31
tp452
s(I0
I82
I0
tp453
(I8
I12
tp454
s(I3
I96
I0
tp455
(I4
I19
tp456
s(I4
I98
I1
tp457
(I31
I22
tp458
s(I0
I57
I1
tp459
(I1
I27
tp460
s(I0
I97
I0
tp461
(I8
I17
tp462
s(I3
I17
I0
tp463
(I5
I21
tp464
s(I2
I67
I1
tp465
(I28
I30
tp466
s(I1
I56
I0
tp467
(I25
I10
tp468
sS'nrows'
p469
I102
s(I4
I22
I1
tp470
(I31
I28
tp471
s(I3
I6
I1
tp472
(I13
I6
tp473
s(I4
I13
I0
tp474
(I6
I3
tp475
s(I0
I32
I1
tp476
(I1
I6
tp477
s(I2
I2
I0
tp478
(I27
I7
tp479
s(I2
I74
I1
tp480
(I28
I15
tp481
s(I4
I60
I0
tp482
(I7
I19
tp483
s(I0
I55
I0
tp484
(I16
I11
tp485
s(I3
I71
I0
tp486
(I29
I5
tp487
s(I3
I31
I1
tp488
(I21
I12
tp489
s(I2
I85
I0
tp490
(I10
I1
tp491
s(I1
I66
I0
tp492
(I25
I27
tp493
s(I4
I43
I1
tp494
(I23
I8
tp495
s(I4
I99
I0
tp496
(I22
I13
tp497
s(I0
I70
I0
tp498
(I16
I10
tp499
s(I2
I100
I0
tp500
(I3
I23
tp501
s(I1
I19
I0
tp502
(I26
I30
tp503
s(I0
I45
I1
tp504
(I1
I1
tp505
s(I3
I37
I0
tp506
(I21
I27
tp507
s(I2
I79
I1
tp508
(I28
I7
tp509
s(I2
I20
I1
tp510
(I20
I30
tp511
s(I1
I100
I1
tp512
(I3
I13
tp513
s(I1
I44
I0
tp514
(I26
I23
tp515
s(I4
I34
I1
tp516
(I23
I29
tp517
s(I3
I26
I1
tp518
(I21
I2
tp519
s(I4
I25
I0
tp520
(I6
I23
tp521
s(I0
I84
I1
tp522
(I9
I5
tp523
s(I2
I14
I0
tp524
(I19
I17
tp525
s(I4
I72
I0
tp526
(I14
I3
tp527
s(I0
I59
I0
tp528
(I16
I15
tp529
s(I3
I91
I0
tp530
(I4
I27
tp531
s(I3
I19
I1
tp532
(I13
I21
tp533
s(I2
I25
I1
tp534
(I20
I26
tp535
s(I2
I65
I0
tp536
(I27
I14
tp537
s(I4
I39
I1
tp538
(I23
I4
tp539
s(I0
I74
I0
tp540
(I16
I32
tp541
s(I3
I8
I0
tp542
(I5
I13
tp543
s(I1
I7
I0
tp544
(I18
I11
tp545
s(I0
I81
I1
tp546
(I9
I27
tp547
s(I3
I57
I0
tp548
(I29
I27
tp549
s(I2
I0
I1
tp550
(I12
I31
tp551
s(I4
I62
I1
tp552
(I15
I15
tp553
s(I3
I46
I1
tp554
(I21
I5
tp555
s(I3
I73
I1
tp556
(I30
I11
tp557
s(I4
I21
I0
tp558
(I6
I19
tp559
s(I0
I16
I0
tp560
(I8
I29
tp561
s(I0
I88
I1
tp562
(I9
I1
tp563
s(I2
I58
I0
tp564
(I19
I29
tp565
s(I2
I98
I1
tp566
(I12
I32
tp567
s(I1
I17
I1
tp568
(I10
I25
tp569
s(I4
I68
I0
tp570
(I14
I7
tp571
s(I0
I47
I0
tp572
(I24
I28
tp573
s(I3
I39
I1
tp574
(I21
I30
tp575
s(I2
I5
I1
tp576
(I12
I4
tp577
s(I2
I77
I0
tp578
(I27
I25
tp579
s(I4
I51
I1
tp580
(I23
I24
tp581
s(I3
I68
I1
tp582
(I6
I26
tp583
s(I3
I28
I0
tp584
(I5
I26
tp585
s(I0
I7
I0
tp586
(I0
I31
tp587
s(I1
I11
I0
tp588
(I18
I23
tp589
s(I0
I49
I1
tp590
(I1
I13
tp591
s(I0
I69
I1
tp592
(I9
I28
tp593
s(I2
I12
I1
tp594
(I12
I11
tp595
s(I1
I28
I1
tp596
(I2
I12
tp597
s(I4
I74
I1
tp598
(I31
I31
tp599
s(I3
I34
I1
tp600
(I21
I4
tp601
s(I3
I93
I1
tp602
(I30
I12
tp603
s(I2
I23
I0
tp604
(I11
I32
tp605
s(I4
I33
I0
tp606
(I7
I0
tp607
s(I0
I4
I0
tp608
(I8
I32
tp609
s(I0
I76
I1
tp610
(I9
I19
tp611
s(I2
I38
I0
tp612
(I11
I21
tp613
s(I1
I93
I0
tp614
(I17
I15
tp615
s(I1
I5
I1
tp616
(I18
I8
tp617
s(I4
I80
I0
tp618
(I22
I12
tp619
s(I0
I83
I0
tp620
(I8
I2
tp621
s(I3
I99
I0
tp622
(I4
I13
tp623
s(I3
I59
I1
tp624
(I6
I0
tp625
s(I2
I49
I1
tp626
(I28
I6
tp627
s(I4
I79
I1
tp628
(I31
I23
tp629
s(I0
I98
I0
tp630
(I8
I25
tp631
s(I3
I16
I0
tp632
(I5
I27
tp633
s(I1
I63
I0
tp634
(I25
I5
tp635
s(I0
I73
I1
tp636
(I9
I32
tp637
s(I0
I18
I1
tp638
(I0
I21
tp639
s(I2
I56
I1
tp640
(I28
I18
tp641
s(I1
I0
I1
tp642
(I18
I14
tp643
s(I4
I14
I0
tp644
(I6
I13
tp645
s(I4
I70
I1
tp646
(I15
I1
tp647
s(I3
I54
I1
tp648
(I30
I7
tp649
s(I3
I81
I1
tp650
(I30
I0
tp651
s(I2
I3
I0
tp652
(I27
I13
tp653
s(I4
I61
I0
tp654
(I7
I20
tp655
s(I0
I8
I0
tp656
(I8
I28
tp657
s(I3
I70
I0
tp658
(I29
I1
tp659
s(I2
I82
I0
tp660
(I27
I19
tp661
s(I1
I65
I0
tp662
(I25
I7
tp663
s(I1
I9
I1
tp664
(I18
I20
tp665
s(I0
I31
I1
tp666
(I1
I4
tp667
s(I0
I71
I0
tp668
(I16
I4
tp669
s(I3
I90
I1
tp670
(I30
I18
tp671
s(I2
I61
I1
tp672
(I28
I24
tp673
s(I2
I101
I0
tp674
(I3
I11
tp675
s(I1
I18
I0
tp676
(I18
I29
tp677
s(I4
I91
I1
tp678
(I31
I2
tp679
s(I3
I36
I0
tp680
(I21
I21
tp681
s(I1
I35
I0
tp682
(I26
I3
tp683
s(I0
I6
I1
tp684
(I0
I13
tp685
s(I3
I86
I1
tp686
(I30
I25
tp687
s(I2
I36
I1
tp688
(I20
I23
tp689
s(I1
I52
I1
tp690
(I3
I22
tp691
s(I1
I83
I1
tp692
(I11
I10
tp693
s(I4
I26
I0
tp694
(I7
I8
tp695
s(I4
I82
I1
tp696
(I31
I17
tp697
s(I3
I101
I1
tp698
(I22
I3
tp699
s(I2
I15
I0
tp700
(I19
I19
tp701
s(I4
I73
I0
tp702
(I22
I32
tp703
s(I0
I60
I0
tp704
(I16
I18
tp705
s(I3
I90
I0
tp706
(I4
I25
tp707
s(I2
I94
I0
tp708
(I10
I8
tp709
s(I1
I61
I1
tp710
(I2
I32
tp711
s(I0
I3
I1
tp712
(I0
I4
tp713
s(I0
I75
I0
tp714
(I16
I20
tp715
s(I3
I11
I0
tp716
(I5
I7
tp717
s(I2
I41
I1
tp718
(I20
I31
tp719
s(I1
I94
I1
tp720
(I3
I25
tp721
s(I1
I6
I0
tp722
(I18
I0
tp723
s(I4
I87
I1
tp724
(I31
I11
tp725
s(I4
I8
I1
tp726
(I14
I25
tp727
s(I3
I96
I1
tp728
(I30
I30
tp729
s(I3
I56
I0
tp730
(I29
I32
tp731
sS'nshanks'
p732
I5
s(I0
I97
I1
tp733
(I17
I12
tp734
s(I0
I10
I1
tp735
(I0
I9
tp736
s(I2
I80
I1
tp737
(I28
I1
tp738
s(I1
I56
I1
tp739
(I2
I25
tp740
s(I1
I71
I1
tp741
(I2
I1
tp742
s(I4
I22
I0
tp743
(I6
I27
tp744
s(I0
I17
I0
tp745
(I24
I0
tp746
sS'ncols'
p747
I2
s(I2
I59
I0
tp748
(I27
I2
tp749
s(I4
I13
I1
tp750
(I14
I21
tp751
s(I4
I69
I0
tp752
(I22
I28
tp753
s(I0
I32
I0
tp754
(I24
I27
tp755
s(I2
I74
I0
tp756
(I27
I24
tp757
s(I1
I33
I1
tp758
(I2
I6
tp759
s(I0
I55
I1
tp760
(I1
I25
tp761
s(I3
I31
I0
tp762
(I5
I18
tp763
s(I2
I85
I1
tp764
(I12
I6
tp765
s(I1
I66
I1
tp766
(I2
I9
tp767
s(I1
I10
I0
tp768
(I18
I17
tp769
s(I4
I99
I1
tp770
(I31
I14
tp771
s(I4
I4
I1
tp772
(I14
I29
tp773
s(I0
I62
I1
tp774
(I9
I20
tp775
s(I2
I20
I0
tp776
(I19
I11
tp777
s(I2
I92
I1
tp778
(I12
I14
tp779
s(I1
I44
I1
tp780
(I3
I6
tp781
s(I1
I75
I1
tp782
(I2
I5
tp783
s(I4
I34
I0
tp784
(I7
I11
tp785
s(I0
I5
I0
tp786
(I0
I29
tp787
s(I3
I13
I1
tp788
(I13
I4
tp789
s(I2
I39
I0
tp790
(I11
I29
tp791
s(I1
I92
I0
tp792
(I17
I17
tp793
s(I4
I25
I1
tp794
(I23
I9
tp795
s(I4
I81
I0
tp796
(I22
I26
tp797
s(I0
I84
I0
tp798
(I8
I10
tp799
s(I3
I98
I0
tp800
(I4
I9
tp801
s(I0
I59
I1
tp802
(I1
I29
tp803
s(I0
I99
I0
tp804
(I8
I19
tp805
s(I3
I19
I0
tp806
(I5
I23
tp807
s(I2
I65
I1
tp808
(I28
I28
tp809
s(I1
I62
I0
tp810
(I25
I11
tp811
s(I4
I16
I1
tp812
(I14
I9
tp813
s(I3
I8
I1
tp814
(I13
I31
tp815
s(I4
I15
I0
tp816
(I6
I5
tp817
s(I0
I34
I1
tp818
(I1
I28
tp819
s(I2
I0
I0
tp820
(I27
I9
tp821
s(I2
I72
I1
tp822
(I28
I17
tp823
s(I4
I62
I0
tp824
(I7
I32
tp825
s(I0
I9
I0
tp826
(I8
I20
tp827
s(I3
I73
I0
tp828
(I29
I7
tp829
s(I3
I1
I1
tp830
(I13
I12
tp831
s(I2
I83
I0
tp832
(I27
I31
tp833
s(I1
I64
I0
tp834
(I25
I9
tp835
s(I4
I21
I1
tp836
(I23
I5
tp837
s(I0
I88
I0
tp838
(I8
I13
tp839
s(I2
I98
I0
tp840
(I10
I4
tp841
s(I1
I17
I0
tp842
(I26
I28
tp843
s(I0
I47
I1
tp844
(I1
I11
tp845
s(I3
I39
I0
tp846
(I21
I29
tp847
s(I2
I77
I1
tp848
(I28
I5
tp849
s(I2
I18
I1
tp850
(I20
I32
tp851
s(I1
I34
I0
tp852
(I26
I0
tp853
s(I4
I44
I1
tp854
(I23
I12
tp855
s(I3
I28
I1
tp856
(I21
I0
tp857
s(I4
I27
I0
tp858
(I6
I31
tp859
s(I0
I86
I1
tp860
(I9
I3
tp861
s(I2
I12
I0
tp862
(I19
I0
tp863
s(I1
I99
I1
tp864
(I3
I19
tp865
s(I4
I74
I0
tp866
(I14
I1
tp867
s(I0
I61
I0
tp868
(I16
I23
tp869
s(I3
I93
I0
tp870
(I4
I29
tp871
s(I3
I21
I1
tp872
(I13
I23
tp873
s(I2
I23
I1
tp874
(I20
I24
tp875
s(I2
I95
I0
tp876
(I10
I19
tp877
s(I4
I33
I1
tp878
(I23
I0
tp879
s(I0
I76
I0
tp880
(I16
I30
tp881
s(I3
I10
I0
tp882
(I5
I11
tp883
s(I1
I5
I0
tp884
(I18
I9
tp885
s(I0
I83
I1
tp886
(I9
I9
tp887
s(I3
I59
I0
tp888
(I29
I29
tp889
s(I2
I30
I1
tp890
(I20
I4
tp891
s(I4
I56
I1
tp892
(I15
I29
tp893
s(I3
I16
I1
tp894
(I13
I15
tp895
s(I3
I75
I1
tp896
(I30
I13
tp897
s(I4
I23
I0
tp898
(I6
I21
tp899
s(I0
I18
I0
tp900
(I24
I14
tp901
s(I0
I90
I1
tp902
(I17
I24
tp903
s(I2
I56
I0
tp904
(I19
I31
tp905
s(I2
I96
I1
tp906
(I4
I1
tp907
s(I1
I23
I1
tp908
(I2
I18
tp909
s(I4
I70
I0
tp910
(I14
I5
tp911
s(I0
I33
I0
tp912
(I24
I15
tp913
s(I3
I81
I0
tp914
(I4
I28
tp915
s(I3
I41
I1
tp916
(I21
I32
tp917
s(I2
I3
I1
tp918
(I12
I2
tp919
s(I2
I75
I0
tp920
(I27
I1
tp921
s(I4
I61
I1
tp922
(I15
I5
tp923
s(I3
I70
I1
tp924
(I6
I24
tp925
s(I3
I30
I0
tp926
(I5
I24
tp927
s(I1
I9
I0
tp928
(I18
I21
tp929
s(I0
I71
I1
tp930
(I9
I30
tp931
s(I2
I101
I1
tp932
(I4
I5
tp933
s(I2
I10
I1
tp934
(I12
I13
tp935
s(I1
I18
I1
tp936
(I10
I29
tp937
s(I4
I52
I1
tp938
(I23
I26
tp939
s(I3
I36
I1
tp940
(I21
I26
tp941
s(I3
I95
I1
tp942
(I22
I1
tp943
s(I2
I21
I0
tp944
(I11
I30
tp945
s(I4
I35
I0
tp946
(I7
I1
tp947
s(I0
I6
I0
tp948
(I8
I30
tp949
s(I0
I78
I1
tp950
(I9
I17
tp951
s(I2
I36
I0
tp952
(I11
I23
tp953
s(I1
I83
I0
tp954
(I25
I30
tp955
s(I1
I27
I1
tp956
(I2
I0
tp957
s(I4
I82
I0
tp958
(I22
I6
tp959
s(I0
I85
I0
tp960
(I8
I4
tp961
s(I3
I101
I0
tp962
(I4
I15
tp963
s(I3
I61
I1
tp964
(I6
I2
tp965
s(I2
I15
I1
tp966
(I12
I5
tp967
s(I4
I73
I1
tp968
(I15
I6
tp969
s(I0
I100
I0
tp970
(I8
I23
tp971
s(I3
I18
I0
tp972
(I5
I25
tp973
s(I1
I61
I0
tp974
(I25
I3
tp975
s(I0
I75
I1
tp976
(I9
I21
tp977
s(I4
I96
I0
tp978
(I22
I9
tp979
s(I2
I54
I1
tp980
(I28
I0
tp981
s(I1
I6
I1
tp982
(I18
I30
tp983
s(I4
I8
I0
tp984
(I14
I32
tp985
s(I4
I64
I1
tp986
(I15
I13
tp987
s(I3
I56
I1
tp988
(I30
I5
tp989
s(I3
I83
I1
tp990
(I30
I2
tp991
s(I2
I1
I0
tp992
(I27
I11
tp993
s(I4
I63
I0
tp994
(I7
I22
tp995
s(I0
I10
I0
tp996
(I8
I18
tp997
s(I3
I72
I0
tp998
(I4
I32
tp999
s(I2
I80
I0
tp1000
(I27
I21
tp1001
s(I1
I71
I0
tp1002
(I25
I19
tp1003
s(I1
I15
I1
tp1004
(I10
I23
tp1005
s(I0
I17
I1
tp1006
(I0
I19
tp1007
s(I0
I89
I0
tp1008
(I8
I1
tp1009
s(I3
I49
I1
tp1010
(I21
I15
tp1011
s(I2
I59
I1
tp1012
(I28
I22
tp1013
s(I2
I99
I0
tp1014
(I10
I2
tp1015
s(I1
I16
I0
tp1016
(I18
I31
tp1017
s(I4
I69
I1
tp1018
(I15
I2
tp1019
s(I3
I38
I0
tp1020
(I21
I19
tp1021
s(I1
I33
I0
tp1022
(I26
I1
tp1023
s(I0
I24
I1
tp1024
(I0
I28
tp1025
s(I2
I34
I1
tp1026
(I20
I0
tp1027
s(I1
I10
I1
tp1028
(I18
I26
tp1029
s(I1
I81
I1
tp1030
(I10
I24
tp1031
s(I4
I4
I0
tp1032
(I14
I12
tp1033
s(I4
I92
I1
tp1034
(I31
I8
tp1035
s(I2
I13
I0
tp1036
(I19
I9
tp1037
s(I4
I75
I0
tp1038
(I22
I20
tp1039
s(I0
I62
I0
tp1040
(I16
I14
tp1041
s(I3
I92
I0
tp1042
(I4
I23
tp1043
s(I2
I92
I0
tp1044
(I10
I9
tp1045
s(I1
I75
I0
tp1046
(I25
I31
tp1047
s(I1
I51
I1
tp1048
(I3
I30
tp1049
s(I0
I5
I1
tp1050
(I0
I1
tp1051
s(I0
I77
I0
tp1052
(I16
I22
tp1053
s(I3
I13
I0
tp1054
(I5
I17
tp1055
s(I2
I39
I1
tp1056
(I20
I29
tp1057
s(I1
I92
I1
tp1058
(I3
I27
tp1059
s(I1
I4
I0
tp1060
(I18
I1
tp1061
s(I4
I81
I1
tp1062
(I31
I5
tp1063
s(I4
I10
I1
tp1064
(I14
I15
tp1065
s(I3
I98
I1
tp1066
(I30
I28
tp1067
s(I3
I58
I0
tp1068
(I29
I30
tp1069
s(I0
I99
I1
tp1070
(I17
I14
tp1071
s(I0
I12
I1
tp1072
(I0
I18
tp1073
s(I2
I46
I1
tp1074
(I20
I7
tp1075
s(I1
I62
I1
tp1076
(I2
I13
tp1077
s(I1
I69
I1
tp1078
(I10
I32
tp1079
s(I4
I16
I0
tp1080
(I6
I11
tp1081
s(I0
I19
I0
tp1082
(I24
I2
tp1083
s(I2
I57
I0
tp1084
(I27
I0
tp1085
s(I4
I15
I1
tp1086
(I14
I23
tp1087
s(I4
I71
I0
tp1088
(I22
I30
tp1089
s(I0
I34
I0
tp1090
(I24
I25
tp1091
s(I3
I80
I0
tp1092
(I4
I18
tp1093
s(I2
I72
I0
tp1094
(I27
I26
tp1095
s(I1
I39
I1
tp1096
(I3
I9
tp1097
s(I0
I9
I1
tp1098
(I0
I5
tp1099
s(I3
I1
I0
tp1100
(I13
I24
tp1101
s(I2
I83
I1
tp1102
(I28
I11
tp1103
s(I1
I64
I1
tp1104
(I2
I11
tp1105
s(I1
I8
I0
tp1106
(I18
I19
tp1107
s(I4
I6
I1
tp1108
(I14
I27
tp1109
s(I0
I48
I1
tp1110
(I1
I23
tp1111
s(I2
I18
I0
tp1112
(I19
I13
tp1113
s(I2
I90
I1
tp1114
(I12
I18
tp1115
s(I1
I34
I1
tp1116
(I3
I3
tp1117
s(I1
I73
I1
tp1118
(I2
I3
tp1119
s(I4
I44
I0
tp1120
(I15
I20
tp1121
s(I4
I100
I1
tp1122
(I31
I20
tp1123
s(I3
I15
I1
tp1124
(I13
I17
tp1125
s(I2
I37
I0
tp1126
(I11
I27
tp1127
s(I1
I82
I0
tp1128
(I17
I5
tp1129
s(I4
I27
I1
tp1130
(I23
I11
tp1131
s(I4
I83
I0
tp1132
(I22
I8
tp1133
s(I0
I86
I0
tp1134
(I8
I8
tp1135
s(I3
I100
I0
tp1136
(I4
I7
tp1137
s(I1
I99
I0
tp1138
(I17
I27
tp1139
s(I1
I43
I1
tp1140
(I3
I12
tp1141
s(I0
I61
I1
tp1142
(I9
I6
tp1143
s(I0
I101
I0
tp1144
(I8
I21
tp1145
s(I3
I21
I0
tp1146
(I5
I31
tp1147
s(I2
I95
I1
tp1148
(I12
I26
tp1149
s(I1
I60
I0
tp1150
(I25
I13
tp1151
s(I4
I18
I1
tp1152
(I31
I32
tp1153
s(I3
I10
I1
tp1154
(I13
I29
tp1155
s(I4
I9
I0
tp1156
(I14
I26
tp1157
s(I0
I36
I1
tp1158
(I1
I26
tp1159
s(I2
I30
I0
tp1160
(I11
I9
tp1161
s(I2
I70
I1
tp1162
(I28
I19
tp1163
s(I4
I56
I0
tp1164
(I7
I23
tp1165
s(I0
I11
I0
tp1166
(I8
I22
tp1167
s(I3
I75
I0
tp1168
(I29
I9
tp1169
s(I3
I3
I1
tp1170
(I13
I14
tp1171
s(I2
I81
I0
tp1172
(I27
I29
tp1173
s(I1
I70
I0
tp1174
(I25
I23
tp1175
s(I4
I23
I1
tp1176
(I23
I7
tp1177
s(I0
I90
I0
tp1178
(I8
I11
tp1179
s(I2
I96
I0
tp1180
(I10
I6
tp1181
s(I1
I23
I0
tp1182
(I26
I20
tp1183
s(I0
I33
I1
tp1184
(I1
I14
tp1185
s(I3
I41
I0
tp1186
(I29
I20
tp1187
s(I2
I75
I1
tp1188
(I28
I25
tp1189
s(I2
I16
I1
tp1190
(I12
I1
tp1191
s(I1
I32
I0
tp1192
(I26
I2
tp1193
s(I4
I46
I1
tp1194
(I23
I32
tp1195
s(I3
I30
I1
tp1196
(I21
I8
tp1197
s(I4
I5
I0
tp1198
(I14
I22
tp1199
s(I0
I40
I1
tp1200
(I1
I9
tp1201
s(I2
I10
I0
tp1202
(I19
I2
tp1203
s(I1
I97
I1
tp1204
(I3
I17
tp1205
s(I4
I52
I0
tp1206
(I15
I28
tp1207
s(I0
I63
I0
tp1208
(I16
I25
tp1209
s(I3
I95
I0
tp1210
(I4
I31
tp1211
s(I3
I23
I1
tp1212
(I13
I5
tp1213
s(I2
I21
I1
tp1214
(I20
I22
tp1215
s(I2
I93
I0
tp1216
(I10
I17
tp1217
s(I1
I74
I0
tp1218
(I25
I26
tp1219
s(I4
I35
I1
tp1220
(I23
I2
tp1221
s(I0
I78
I0
tp1222
(I16
I28
tp1223
s(I3
I12
I0
tp1224
(I5
I9
tp1225
s(I1
I27
I0
tp1226
(I26
I24
tp1227
s(I0
I85
I1
tp1228
(I9
I11
tp1229
s(I3
I61
I0
tp1230
(I29
I31
tp1231
s(I2
I28
I1
tp1232
(I20
I6
tp1233
s(I4
I58
I1
tp1234
(I15
I27
tp1235
s(I3
I18
I1
tp1236
(I13
I13
tp1237
s(I3
I77
I1
tp1238
(I30
I15
tp1239
s(I4
I17
I0
tp1240
(I6
I7
tp1241
s(I0
I20
I0
tp1242
(I24
I12
tp1243
s(I0
I92
I1
tp1244
(I17
I22
tp1245
s(I2
I54
I0
tp1246
(I19
I4
tp1247
s(I1
I21
I1
tp1248
(I2
I14
tp1249
s(I4
I64
I0
tp1250
(I7
I30
tp1251
s(I0
I35
I0
tp1252
(I24
I17
tp1253
s(I3
I83
I0
tp1254
(I4
I6
tp1255
s(I3
I43
I1
tp1256
(I21
I9
tp1257
s(I2
I1
I1
tp1258
(I12
I0
tp1259
s(I2
I73
I0
tp1260
(I27
I32
tp1261
s(I4
I63
I1
tp1262
(I15
I7
tp1263
s(I3
I72
I1
tp1264
(I6
I22
tp1265
s(I3
I0
I0
tp1266
(I5
I1
tp1267
s(I1
I15
I0
tp1268
(I26
I26
tp1269
s(I0
I89
I1
tp1270
(I17
I26
tp1271
s(I3
I49
I0
tp1272
(I29
I8
tp1273
s(I2
I99
I1
tp1274
(I12
I30
tp1275
s(I2
I8
I1
tp1276
(I12
I15
tp1277
s(I1
I16
I1
tp1278
(I10
I31
tp1279
s(I4
I54
I1
tp1280
(I15
I31
tp1281
s(I3
I38
I1
tp1282
(I21
I24
tp1283
s(I3
I65
I1
tp1284
(I6
I6
tp1285
s(I2
I19
I0
tp1286
(I19
I23
tp1287
s(I4
I45
I0
tp1288
(I15
I14
tp1289
s(I0
I24
I0
tp1290
(I24
I8
tp1291
s(I0
I64
I1
tp1292
(I9
I18
tp1293
s(I2
I34
I0
tp1294
(I11
I5
tp1295
s(I1
I81
I0
tp1296
(I25
I28
tp1297
s(I1
I25
I1
tp1298
(I2
I20
tp1299
s(I4
I92
I0
tp1300
(I22
I19
tp1301
s(I0
I87
I0
tp1302
(I8
I6
tp1303
s(I3
I63
I1
tp1304
(I6
I4
tp1305
s(I2
I13
I1
tp1306
(I12
I23
tp1307
s(I1
I98
I0
tp1308
(I17
I31
tp1309
s(I4
I75
I1
tp1310
(I31
I19
tp1311
s(I3
I92
I1
tp1312
(I30
I14
tp1313
s(I3
I20
I0
tp1314
(I5
I10
tp1315
s(I3
I78
I1
tp1316
(I30
I19
tp1317
s(I0
I77
I1
tp1318
(I9
I23
tp1319
s(I0
I22
I1
tp1320
(I0
I30
tp1321
s(I2
I52
I1
tp1322
(I28
I2
tp1323
s(I1
I4
I1
tp1324
(I18
I10
tp1325
s(I4
I10
I0
tp1326
(I14
I30
tp1327
s(I4
I66
I1
tp1328
(I15
I11
tp1329
s(I3
I58
I1
tp1330
(I30
I3
tp1331
s(I3
I85
I1
tp1332
(I30
I4
tp1333
s(I2
I31
I0
tp1334
(I11
I15
tp1335
s(I4
I57
I0
tp1336
(I7
I15
tp1337
s(I0
I12
I0
tp1338
(I8
I14
tp1339
s(I3
I74
I0
tp1340
(I4
I30
tp1341
s(I2
I46
I0
tp1342
(I19
I22
tp1343
s(I1
I69
I0
tp1344
(I25
I17
tp1345
s(I1
I13
I1
tp1346
(I10
I21
tp1347
s(I0
I19
I1
tp1348
(I0
I20
tp1349
s(I0
I91
I0
tp1350
(I8
I3
tp1351
s(I3
I51
I1
tp1352
(I5
I28
tp1353
s(I2
I57
I1
tp1354
(I28
I20
tp1355
s(I2
I97
I0
tp1356
(I10
I0
tp1357
s(I1
I22
I0
tp1358
(I26
I18
tp1359
s(I4
I71
I1
tp1360
(I15
I4
tp1361
s(I3
I80
I1
tp1362
(I30
I31
tp1363
s(I3
I40
I0
tp1364
(I21
I17
tp1365
s(I1
I39
I0
tp1366
(I26
I15
tp1367
s(I0
I26
I1
tp1368
(I1
I12
tp1369
s(I2
I32
I1
tp1370
(I20
I2
tp1371
s(I1
I8
I1
tp1372
(I18
I28
tp1373
s(I1
I87
I1
tp1374
(I11
I14
tp1375
s(I4
I6
I0
tp1376
(I6
I1
tp1377
s(I4
I94
I1
tp1378
(I31
I6
tp1379
s(I2
I11
I0
tp1380
(I19
I7
tp1381
s(I4
I53
I0
tp1382
(I15
I26
tp1383
s(I0
I48
I0
tp1384
(I16
I5
tp1385
s(I3
I94
I0
tp1386
(I4
I21
tp1387
s(I2
I90
I0
tp1388
(I10
I11
tp1389
s(I1
I73
I0
tp1390
(I25
I29
tp1391
s(I1
I49
I1
tp1392
(I3
I28
tp1393
s(I0
I7
I1
tp1394
(I0
I3
tp1395
s(I0
I79
I0
tp1396
(I16
I24
tp1397
s(I3
I15
I0
tp1398
(I5
I19
tp1399
s(I2
I37
I1
tp1400
(I20
I27
tp1401
s(I1
I82
I1
tp1402
(I10
I10
tp1403
s(I1
I26
I0
tp1404
(I26
I12
tp1405
s(I4
I83
I1
tp1406
(I31
I7
tp1407
s(I3
I100
I1
tp1408
(I30
I26
tp1409
s(I3
I60
I0
tp1410
(I29
I28
tp1411
s(I1
I43
I0
tp1412
(I26
I25
tp1413
s(I0
I101
I1
tp1414
(I17
I18
tp1415
s(I0
I14
I1
tp1416
(I0
I14
tp1417
s(I2
I44
I1
tp1418
(I20
I9
tp1419
s(I1
I60
I1
tp1420
(I2
I21
tp1421
s(I1
I91
I1
tp1422
(I3
I31
tp1423
s(I4
I18
I0
tp1424
(I6
I9
tp1425
s(I0
I21
I0
tp1426
(I24
I4
tp1427
s(I2
I55
I0
tp1428
(I19
I18
tp1429
s(I4
I9
I1
tp1430
(I14
I17
tp1431
s(I4
I65
I0
tp1432
(I7
I24
tp1433
s(I0
I36
I0
tp1434
(I24
I23
tp1435
s(I3
I82
I0
tp1436
(I4
I14
tp1437
s(I2
I70
I0
tp1438
(I27
I28
tp1439
s(I1
I37
I1
tp1440
(I3
I7
tp1441
s(I0
I11
I1
tp1442
(I0
I7
tp1443
s(I3
I3
I0
tp1444
(I13
I26
tp1445
s(I2
I81
I1
tp1446
(I28
I9
tp1447
s(I1
I70
I1
tp1448
(I10
I30
tp1449
s(I1
I14
I0
tp1450
(I18
I13
tp1451
s(I4
I0
I1
tp1452
(I14
I6
tp1453
s(I3
I48
I0
tp1454
(I29
I6
tp1455
s(I0
I50
I1
tp1456
(I1
I21
tp1457
s(I2
I16
I0
tp1458
(I19
I15
tp1459
s(I2
I88
I1
tp1460
(I12
I20
tp1461
s(I1
I32
I1
tp1462
(I2
I8
tp1463
s(I1
I79
I1
tp1464
(I10
I22
tp1465
s(I4
I46
I0
tp1466
(I15
I18
tp1467
s(I0
I25
I0
tp1468
(I24
I1
tp1469
s(I2
I35
I0
tp1470
(I11
I25
tp1471
s(I1
I80
I0
tp1472
(I17
I7
tp1473
s(I4
I5
I1
tp1474
(I14
I2
tp1475
s(I4
I93
I0
tp1476
(I22
I27
tp1477
s(I0
I40
I0
tp1478
(I24
I26
tp1479
s(I1
I97
I0
tp1480
(I17
I25
tp1481
s(I1
I41
I1
tp1482
(I3
I10
tp1483
s(I0
I63
I1
tp1484
(I9
I8
tp1485
s(I3
I23
I0
tp1486
(I5
I0
tp1487
s(I2
I93
I1
tp1488
(I12
I24
tp1489
s(I1
I74
I1
tp1490
(I10
I26
tp1491
s(I1
I50
I0
tp1492
(I9
I31
tp1493
s(I4
I28
I1
tp1494
(I23
I19
tp1495
s(I3
I12
I1
tp1496
(I13
I27
tp1497
s(I4
I11
I0
tp1498
(I14
I28
tp1499
s(I0
I38
I1
tp1500
(I1
I24
tp1501
s(I2
I28
I0
tp1502
(I11
I11
tp1503
s(I2
I68
I1
tp1504
(I28
I27
tp1505
s(I4
I58
I0
tp1506
(I7
I21
tp1507
s(I0
I13
I0
tp1508
(I8
I24
tp1509
s(I3
I77
I0
tp1510
(I4
I24
tp1511
s(I3
I5
I1
tp1512
(I13
I18
tp1513
s(I2
I47
I0
tp1514
(I19
I32
tp1515
s(I1
I68
I0
tp1516
(I25
I25
tp1517
s(I4
I17
I1
tp1518
(I23
I1
tp1519
s(I0
I92
I0
tp1520
(I8
I9
tp1521
s(I1
I21
I0
tp1522
(I26
I32
tp1523
s(I0
I35
I1
tp1524
(I1
I18
tp1525
s(I3
I43
I0
tp1526
(I29
I22
tp1527
s(I2
I73
I1
tp1528
(I28
I23
tp1529
s(I1
I38
I0
tp1530
(I26
I9
tp1531
s(I4
I40
I1
tp1532
(I23
I18
tp1533
s(I3
I0
I1
tp1534
(I13
I22
tp1535
s(I4
I7
I0
tp1536
(I14
I24
tp1537
s(I0
I42
I1
tp1538
(I1
I7
tp1539
s(I2
I8
I0
tp1540
(I19
I1
tp1541
s(I4
I54
I0
tp1542
(I7
I25
tp1543
s(I0
I49
I0
tp1544
(I24
I30
tp1545
s(I3
I65
I0
tp1546
(I29
I21
tp1547
s(I3
I25
I1
tp1548
(I13
I7
tp1549
s(I2
I19
I1
tp1550
(I12
I9
tp1551
s(I2
I91
I0
tp1552
(I10
I7
tp1553
s(I1
I72
I0
tp1554
(I25
I21
tp1555
s(I4
I45
I1
tp1556
(I23
I10
tp1557
s(I4
I101
I0
tp1558
(I22
I15
tp1559
s(I0
I64
I0
tp1560
(I16
I31
tp1561
s(I3
I14
I0
tp1562
(I5
I29
tp1563
s(I1
I25
I0
tp1564
(I26
I22
tp1565
s(I0
I87
I1
tp1566
(I9
I13
tp1567
s(I3
I63
I0
tp1568
(I29
I19
tp1569
s(I2
I26
I1
tp1570
(I20
I14
tp1571
s(I1
I98
I1
tp1572
(I3
I15
tp1573
s(I1
I42
I0
tp1574
(I26
I5
tp1575
s(I4
I36
I1
tp1576
(I23
I27
tp1577
s(I3
I20
I1
tp1578
(I13
I11
tp1579
s(I3
I79
I1
tp1580
(I30
I17
tp1581
s(I4
I19
I0
tp1582
(I6
I17
tp1583
s(I0
I22
I0
tp1584
(I24
I10
tp1585
s(I0
I94
I1
tp1586
(I17
I20
tp1587
s(I2
I52
I0
tp1588
(I19
I6
tp1589
s(I4
I66
I0
tp1590
(I7
I28
tp1591
s(I0
I37
I0
tp1592
(I24
I19
tp1593
s(I3
I85
I0
tp1594
(I4
I8
tp1595
s(I3
I45
I1
tp1596
(I21
I11
tp1597
s(I2
I31
I1
tp1598
(I20
I10
tp1599
s(I2
I71
I0
tp1600
(I27
I30
tp1601
s(I4
I57
I1
tp1602
(I15
I23
tp1603
s(I3
I74
I1
tp1604
(I30
I23
tp1605
s(I3
I2
I0
tp1606
(I13
I32
tp1607
s(I1
I13
I0
tp1608
(I18
I25
tp1609
s(I0
I91
I1
tp1610
(I17
I28
tp1611
s(I3
I51
I0
tp1612
(I29
I10
tp1613
s(I2
I97
I1
tp1614
(I12
I28
tp1615
s(I2
I6
I1
tp1616
(I12
I25
tp1617
s(I1
I22
I1
tp1618
(I2
I26
tp1619
s(I4
I48
I1
tp1620
(I23
I30
tp1621
s(I3
I40
I1
tp1622
(I21
I22
tp1623
s(I3
I67
I1
tp1624
(I6
I14
tp1625
s(I2
I17
I0
tp1626
(I19
I21
tp1627
s(I4
I47
I0
tp1628
(I7
I27
tp1629
s(I0
I26
I0
tp1630
(I24
I13
tp1631
s(I0
I66
I1
tp1632
(I9
I14
tp1633
s(I2
I32
I0
tp1634
(I11
I7
tp1635
s(I1
I87
I0
tp1636
(I17
I9
tp1637
s(I1
I31
I1
tp1638
(I2
I4
tp1639
s(I4
I94
I0
tp1640
(I22
I17
tp1641
s(I0
I41
I0
tp1642
(I24
I31
tp1643
s(I3
I33
I1
tp1644
(I21
I14
tp1645
s(I2
I11
I1
tp1646
(I12
I21
tp1647
s(I1
I96
I0
tp1648
(I17
I0
tp1649
s(I4
I53
I1
tp1650
(I15
I19
tp1651
s(I3
I94
I1
tp1652
(I30
I32
tp1653
s(I3
I22
I0
tp1654
(I5
I8
tp1655
s(I1
I49
I0
tp1656
(I26
I31
tp1657
s(I0
I79
I1
tp1658
(I9
I25
tp1659
s(I2
I50
I1
tp1660
(I28
I4
tp1661
s(I1
I26
I1
tp1662
(I2
I22
tp1663
s(I4
I100
I0
tp1664
(I22
I5
tp1665
s(I4
I76
I1
tp1666
(I31
I29
tp1667
s(I3
I60
I1
tp1668
(I6
I12
tp1669
s(I3
I87
I1
tp1670
(I30
I6
tp1671
s(I2
I29
I0
tp1672
(I11
I13
tp1673
s(I4
I59
I0
tp1674
(I7
I17
tp1675
s(I0
I14
I0
tp1676
(I8
I31
tp1677
s(I3
I76
I0
tp1678
(I4
I22
tp1679
s(I2
I44
I0
tp1680
(I19
I24
tp1681
s(I1
I91
I0
tp1682
(I17
I13
tp1683
s(I1
I3
I1
tp1684
(I18
I6
tp1685
s(I0
I21
I1
tp1686
(I0
I22
tp1687
s(I0
I93
I0
tp1688
(I8
I5
tp1689
s(I3
I53
I1
tp1690
(I5
I30
tp1691
s(I2
I55
I1
tp1692
(I20
I3
tp1693
s(I1
I20
I0
tp1694
(I18
I27
tp1695
s(I4
I65
I1
tp1696
(I15
I9
tp1697
s(I3
I82
I1
tp1698
(I30
I29
tp1699
s(I3
I42
I0
tp1700
(I29
I18
tp1701
s(I1
I37
I0
tp1702
(I26
I13
tp1703
s(I0
I28
I1
tp1704
(I1
I10
tp1705
s(I2
I62
I1
tp1706
(I28
I10
tp1707
s(I1
I14
I1
tp1708
(I18
I32
tp1709
s(I1
I85
I1
tp1710
(I11
I12
tp1711
s(I4
I0
I0
tp1712
(I14
I18
tp1713
s(I4
I88
I1
tp1714
(I31
I3
tp1715
s(I3
I48
I1
tp1716
(I21
I3
tp1717
s(I2
I9
I0
tp1718
(I19
I5
tp1719
s(I4
I55
I0
tp1720
(I7
I13
tp1721
s(I0
I50
I0
tp1722
(I16
I3
tp1723
s(I3
I64
I0
tp1724
(I29
I15
tp1725
s(I2
I88
I0
tp1726
(I10
I13
tp1727
s(I1
I79
I0
tp1728
(I25
I20
tp1729
s(I1
I55
I1
tp1730
(I2
I27
tp1731
s(I0
I25
I1
tp1732
(I0
I26
tp1733
s(I0
I65
I0
tp1734
(I16
I27
tp1735
s(I2
I35
I1
tp1736
(I20
I25
tp1737
s(I1
I80
I1
tp1738
(I10
I12
tp1739
s(I1
I24
I0
tp1740
(I26
I14
tp1741
s(I4
I93
I1
tp1742
(I31
I4
tp1743
s(I3
I62
I0
tp1744
(I29
I17
tp1745
s(I1
I41
I0
tp1746
(I26
I17
tp1747
s(I0
I0
I1
tp1748
(I0
I10
tp1749
s(I2
I42
I1
tp1750
(I20
I11
tp1751
s(I1
I50
I1
tp1752
(I3
I24
tp1753
s(I1
I89
I1
tp1754
(I11
I18
tp1755
s(I1
I51
I0
tp1756
(I25
I0
tp1757
s(I4
I84
I1
tp1758
(I31
I15
tp1759
s(I2
I53
I0
tp1760
(I19
I14
tp1761
s(I4
I11
I1
tp1762
(I14
I19
tp1763
s(I4
I67
I0
tp1764
(I7
I26
tp1765
s(I0
I38
I0
tp1766
(I24
I21
tp1767
s(I3
I84
I0
tp1768
(I4
I4
tp1769
s(I2
I68
I0
tp1770
(I27
I6
tp1771
s(I0
I27
I0
tp1772
(I24
I3
tp1773
s(I1
I59
I1
tp1774
(I2
I31
tp1775
s(I0
I13
I1
tp1776
(I0
I15
tp1777
s(I3
I5
I0
tp1778
(I13
I28
tp1779
s(I2
I47
I1
tp1780
(I20
I17
tp1781
s(I1
I68
I1
tp1782
(I2
I7
tp1783
s(I1
I12
I0
tp1784
(I18
I15
tp1785
s(I4
I2
I1
tp1786
(I14
I31
tp1787
s(I3
I50
I0
tp1788
(I29
I4
tp1789
s(I0
I52
I1
tp1790
(I1
I19
tp1791
s(I0
I72
I1
tp1792
(I9
I22
tp1793
s(I2
I86
I1
tp1794
(I12
I22
tp1795
s(I1
I38
I1
tp1796
(I3
I2
tp1797
s(I1
I77
I1
tp1798
(I10
I20
tp1799
s(I4
I40
I0
tp1800
(I15
I24
tp1801
s(I4
I96
I1
tp1802
(I31
I24
tp1803
s(I2
I33
I0
tp1804
(I11
I17
tp1805
s(I1
I86
I0
tp1806
(I17
I1
tp1807
s(I4
I7
I1
tp1808
(I14
I4
tp1809
s(I4
I95
I0
tp1810
(I22
I29
tp1811
s(I0
I42
I0
tp1812
(I24
I24
tp1813
s(I1
I47
I1
tp1814
(I3
I18
tp1815
s(I0
I20
I1
tp1816
(I0
I32
tp1817
s(I3
I25
I0
tp1818
(I5
I2
tp1819
s(I2
I91
I1
tp1820
(I12
I12
tp1821
s(I1
I72
I1
tp1822
(I10
I28
tp1823
s(I1
I48
I0
tp1824
(I26
I19
tp1825
s(I4
I101
I1
tp1826
(I31
I18
tp1827
s(I4
I30
I1
tp1828
(I23
I17
tp1829
s(I3
I14
I1
tp1830
(I13
I25
tp1831
s(I0
I23
I1
tp1832
(I0
I24
tp1833
s(I0
I56
I1
tp1834
(I9
I2
tp1835
s(I2
I26
I0
tp1836
(I11
I24
tp1837
s(I2
I66
I1
tp1838
(I28
I29
tp1839
s(I1
I42
I1
tp1840
(I3
I8
tp1841
s(I4
I36
I0
tp1842
(I7
I9
tp1843
s(I0
I15
I0
tp1844
(I8
I26
tp1845
s(I3
I79
I0
tp1846
(I4
I26
tp1847
s(I3
I7
I1
tp1848
(I13
I20
tp1849
s(I2
I45
I0
tp1850
(I19
I30
tp1851
s(I1
I90
I0
tp1852
(I17
I19
tp1853
s(I4
I19
I1
tp1854
(I23
I3
tp1855
s(I0
I94
I0
tp1856
(I8
I7
tp1857
s(I0
I37
I1
tp1858
(I1
I20
tp1859
s(I3
I45
I0
tp1860
(I29
I24
tp1861
s(I2
I71
I1
tp1862
(I28
I21
tp1863
s(I1
I36
I0
tp1864
(I26
I11
tp1865
s(I4
I42
I1
tp1866
(I23
I14
tp1867
s(I3
I2
I1
tp1868
(I13
I10
tp1869
s(I4
I1
I0
tp1870
(I14
I8
tp1871
s(I0
I44
I1
tp1872
(I1
I5
tp1873
s(I2
I6
I0
tp1874
(I27
I3
tp1875
s(I2
I78
I1
tp1876
(I28
I3
tp1877
s(I1
I101
I1
tp1878
(I3
I21
tp1879
s(I4
I48
I0
tp1880
(I15
I32
tp1881
s(I0
I51
I0
tp1882
(I24
I32
tp1883
s(I3
I67
I0
tp1884
(I29
I23
tp1885
s(I3
I27
I1
tp1886
(I13
I9
tp1887
s(I2
I17
I1
tp1888
(I12
I7
tp1889
s(I2
I89
I0
tp1890
(I10
I5
tp1891
s(I1
I78
I0
tp1892
(I25
I22
tp1893
s(I4
I47
I1
tp1894
(I23
I20
tp1895
s(I0
I66
I0
tp1896
(I16
I29
tp1897
s(I1
I31
I0
tp1898
(I26
I8
tp1899
s(I0
I41
I1
tp1900
(I1
I30
tp1901
s(I3
I33
I0
tp1902
(I5
I20
tp1903
s(I2
I24
I1
tp1904
(I20
I18
tp1905
s(I1
I96
I1
tp1906
(I2
I30
tp1907
s(I1
I40
I0
tp1908
(I26
I7
tp1909
s(I4
I38
I1
tp1910
(I23
I25
tp1911
s(I3
I22
I1
tp1912
(I13
I3
tp1913
s(I4
I29
I0
tp1914
(I6
I30
tp1915
s(I0
I80
I1
tp1916
(I9
I15
tp1917
s(I2
I50
I0
tp1918
(I19
I8
tp1919
s(I4
I76
I0
tp1920
(I22
I18
tp1921
s(I0
I39
I0
tp1922
(I24
I29
tp1923
s(I3
I87
I0
tp1924
(I4
I10
tp1925
s(I3
I47
I1
tp1926
(I21
I13
tp1927
s(I2
I29
I1
tp1928
(I20
I8
tp1929
s(I2
I69
I0
tp1930
(I27
I20
tp1931
s(I4
I59
I1
tp1932
(I15
I25
tp1933
s(I3
I76
I1
tp1934
(I30
I21
tp1935
s(I3
I4
I0
tp1936
(I13
I30
tp1937
s(I1
I3
I0
tp1938
(I18
I7
tp1939
s(I0
I93
I1
tp1940
(I17
I30
tp1941
s(I3
I53
I0
tp1942
(I29
I12
tp1943
s(I2
I4
I1
tp1944
(I12
I27
tp1945
s(I1
I20
I1
tp1946
(I2
I28
tp1947
s(I4
I50
I1
tp1948
(I23
I28
tp1949
s(I3
I42
I1
tp1950
(I21
I20
tp1951
s(I3
I69
I1
tp1952
(I6
I18
tp1953
s(I4
I41
I0
tp1954
(I15
I10
tp1955
s(I0
I28
I0
tp1956
(I24
I11
tp1957
s(I0
I68
I1
tp1958
(I9
I26
tp1959
s(I2
I62
I0
tp1960
(I19
I25
tp1961
s(I1
I85
I0
tp1962
(I25
I32
tp1963
s(I1
I29
I1
tp1964
(I2
I2
tp1965
s(I4
I88
I0
tp1966
(I22
I0
tp1967
s(I0
I43
I0
tp1968
(I24
I18
tp1969
s(I3
I35
I1
tp1970
(I21
I18
tp1971
s(I2
I9
I1
tp1972
(I12
I19
tp1973
s(I4
I55
I1
tp1974
(I15
I21
tp1975
s(I3
I64
I1
tp1976
(I6
I8
tp1977
s(I3
I24
I0
tp1978
(I5
I6
tp1979
s(I1
I55
I0
tp1980
(I25
I4
tp1981
s(I0
I65
I1
tp1982
(I9
I10
tp1983
s(I2
I48
I1
tp1984
(I20
I5
tp1985
s(I1
I24
I1
tp1986
(I2
I24
tp1987
s(I4
I78
I1
tp1988
(I31
I27
tp1989
s(I3
I62
I1
tp1990
(I6
I10
tp1991
s(I3
I89
I1
tp1992
(I30
I8
tp1993
s(I2
I27
I0
tp1994
(I11
I3
tp1995
s(I4
I37
I0
tp1996
(I7
I3
tp1997
s(I0
I0
I0
tp1998
(I0
I0
tp1999
s(I3
I78
I0
tp2000
(I4
I20
tp2001
s(I2
I42
I0
tp2002
(I19
I26
tp2003
s(I1
I89
I0
tp2004
(I17
I11
tp2005
s(I1
I1
I1
tp2006
(I18
I4
tp2007
s(I4
I84
I0
tp2008
(I22
I4
tp2009
s(I0
I95
I0
tp2010
(I8
I15
tp2011
s(I3
I55
I1
tp2012
(I5
I32
tp2013
s(I2
I53
I1
tp2014
(I20
I1
tp2015
s(I4
I67
I1
tp2016
(I15
I0
tp2017
s(I3
I84
I1
tp2018
(I30
I27
tp2019
s(I3
I44
I0
tp2020
(I29
I14
tp2021
s(I1
I59
I0
tp2022
(I25
I1
tp2023
s(I0
I30
I1
tp2024
(I1
I8
tp2025
s(I2
I60
I1
tp2026
(I28
I12
tp2027
s(I1
I12
I1
tp2028
(I18
I24
tp2029
s(I4
I2
I0
tp2030
(I14
I14
tp2031
s(I4
I90
I1
tp2032
(I31
I1
tp2033
s(I3
I50
I1
tp2034
(I21
I1
tp2035
s(I2
I7
I0
tp2036
(I19
I3
tp2037
s(I0
I52
I0
tp2038
(I16
I1
tp2039
s(I4
I49
I0
tp2040
(I7
I29
tp2041
s(I0
I29
I1
tp2042
(I1
I2
tp2043
s.