(dp0
(I0
I42
I1
tp1
(I0
I11
tp2
s(I0
I24
I1
tp3
(I5
I6
tp4
s(I0
I45
I1
tp5
(I0
I5
tp6
s(I0
I27
I1
tp7
(I5
I4
tp8
s(I0
I49
I0
tp9
(I1
I2
tp10
s(I0
I44
I0
tp11
(I1
I25
tp12
s(I0
I40
I2
tp13
(I3
I17
tp14
s(I0
I42
I3
tp15
(I2
I11
tp16
s(I0
I59
I2
tp17
(I3
I24
tp18
s(I0
I45
I3
tp19
(I2
I5
tp20
s(I0
I62
I0
tp21
(I1
I30
tp22
s(I0
I17
I3
tp23
(I7
I25
tp24
s(I0
I49
I2
tp25
(I3
I2
tp26
s(I0
I2
I1
tp27
(I5
I9
tp28
s(I0
I56
I2
tp29
(I3
I18
tp30
s(I0
I59
I0
tp31
(I1
I24
tp32
s(I0
I12
I3
tp33
(I7
I22
tp34
s(I0
I62
I2
tp35
(I3
I30
tp36
s(I0
I15
I3
tp37
(I7
I23
tp38
s(I0
I2
I3
tp39
(I2
I27
tp40
s(I0
I48
I1
tp41
(I0
I32
tp42
s(I0
I19
I2
tp43
(I6
I22
tp44
s(I0
I5
I3
tp45
(I3
I3
tp46
s(I0
I22
I0
tp47
(I4
I0
tp48
s(I0
I12
I1
tp49
(I5
I14
tp50
s(I0
I15
I1
tp51
(I5
I12
tp52
s(I0
I16
I2
tp53
(I6
I20
tp54
s(I0
I37
I0
tp55
(I1
I11
tp56
s(I0
I19
I0
tp57
(I4
I5
tp58
s(I0
I53
I2
tp59
(I3
I10
tp60
s(I0
I22
I2
tp61
(I6
I24
tp62
s(I0
I47
I2
tp63
(I3
I31
tp64
s(I0
I34
I0
tp65
(I4
I22
tp66
s(I0
I16
I0
tp67
(I4
I6
tp68
s(I0
I37
I2
tp69
(I3
I11
tp70
s(I0
I54
I1
tp71
(I0
I20
tp72
s(I0
I44
I2
tp73
(I3
I25
tp74
s(I0
I21
I2
tp75
(I6
I0
tp76
s(I0
I47
I0
tp77
(I1
I31
tp78
s(I0
I48
I3
tp79
(I2
I32
tp80
s(I0
I34
I2
tp81
(I6
I32
tp82
sS'nrows'
p83
I64
s(I0
I51
I3
tp84
(I2
I26
tp85
s(I0
I29
I3
tp86
(I7
I5
tp87
s(I0
I54
I3
tp88
(I2
I20
tp89
s(I0
I7
I2
tp90
(I6
I12
tp91
s(I0
I9
I3
tp92
(I7
I17
tp93
s(I0
I26
I0
tp94
(I4
I30
tp95
s(I0
I29
I2
tp96
(I6
I5
tp97
s(I0
I19
I3
tp98
(I7
I27
tp99
s(I0
I51
I1
tp100
(I0
I26
tp101
s(I0
I4
I2
tp102
(I6
I10
tp103
s(I0
I41
I0
tp104
(I1
I19
tp105
s(I0
I53
I3
tp106
(I2
I22
tp107
s(I0
I7
I0
tp108
(I0
I31
tp109
s(I0
I26
I2
tp110
(I6
I7
tp111
s(I0
I4
I0
tp112
(I1
I3
tp113
s(I0
I41
I2
tp114
(I3
I19
tp115
s(I0
I58
I1
tp116
(I0
I10
tp117
s(I0
I61
I1
tp118
(I0
I4
tp119
s(I0
I36
I3
tp120
(I2
I23
tp121
s(I0
I39
I3
tp122
(I2
I17
tp123
s(I0
I58
I3
tp124
(I2
I10
tp125
s(I0
I25
I2
tp126
(I6
I26
tp127
s(I0
I11
I2
tp128
(I6
I17
tp129
s(I0
I61
I3
tp130
(I2
I4
tp131
s(I0
I14
I0
tp132
(I4
I8
tp133
s(I0
I36
I1
tp134
(I0
I23
tp135
s(I0
I18
I1
tp136
(I5
I10
tp137
s(I0
I39
I1
tp138
(I0
I17
tp139
s(I0
I8
I2
tp140
(I6
I19
tp141
s(I0
I11
I0
tp142
(I4
I13
tp143
s(I0
I28
I3
tp144
(I7
I4
tp145
s(I0
I14
I2
tp146
(I6
I15
tp147
s(I0
I31
I3
tp148
(I7
I7
tp149
s(I0
I18
I3
tp150
(I7
I28
tp151
s(I0
I21
I3
tp152
(I7
I29
tp153
s(I0
I46
I1
tp154
(I0
I3
tp155
s(I0
I28
I1
tp156
(I4
I18
tp157
s(I0
I33
I1
tp158
(I5
I0
tp159
s(I0
I31
I1
tp160
(I4
I19
tp161
s(I0
I40
I3
tp162
(I2
I15
tp163
s(I0
I43
I3
tp164
(I2
I9
tp165
s(I0
I25
I3
tp166
(I7
I1
tp167
s(I0
I46
I3
tp168
(I2
I3
tp169
s(I0
I63
I2
tp170
(I3
I32
tp171
s(I0
I33
I3
tp172
(I7
I9
tp173
s(I0
I50
I0
tp174
(I1
I4
tp175
s(I0
I40
I1
tp176
(I0
I15
tp177
s(I0
I6
I1
tp178
(I5
I20
tp179
s(I0
I43
I1
tp180
(I0
I9
tp181
s(I0
I25
I1
tp182
(I4
I17
tp183
s(I0
I63
I0
tp184
(I1
I32
tp185
s(I0
I0
I3
tp186
(I2
I25
tp187
s(I0
I50
I2
tp188
(I3
I4
tp189
s(I0
I3
I3
tp190
(I3
I5
tp191
s(I0
I6
I3
tp192
(I2
I31
tp193
s(I0
I23
I2
tp194
(I6
I9
tp195
s(I0
I60
I0
tp196
(I1
I26
tp197
s(I0
I0
I1
tp198
(I5
I24
tp199
s(I0
I3
I1
tp200
(I5
I22
tp201
s(I0
I20
I2
tp202
(I6
I11
tp203
s(I0
I57
I0
tp204
(I1
I20
tp205
s(I0
I23
I0
tp206
(I4
I1
tp207
s(I0
I58
I0
tp208
(I1
I22
tp209
s(I0
I5
I2
tp210
(I6
I21
tp211
s(I0
I35
I2
tp212
(I6
I1
tp213
s(I0
I60
I3
tp214
(I2
I6
tp215
s(I0
I1
I0
tp216
(I0
I25
tp217
s(I0
I20
I0
tp218
(I4
I2
tp219
s(I0
I57
I2
tp220
(I3
I20
tp221
s(I0
I10
I1
tp222
(I5
I28
tp223
s(I0
I32
I2
tp224
(I6
I3
tp225
s(I0
I35
I0
tp226
(I4
I21
tp227
s(I0
I52
I3
tp228
(I2
I24
tp229
s(I0
I38
I2
tp230
(I3
I13
tp231
s(I0
I55
I3
tp232
(I2
I18
tp233
s(I0
I10
I3
tp234
(I7
I20
tp235
s(I0
I27
I2
tp236
(I7
I14
tp237
s(I0
I32
I0
tp238
(I4
I24
tp239
s(I0
I30
I0
tp240
(I4
I26
tp241
s(I0
I17
I2
tp242
(I6
I13
tp243
s(I0
I55
I1
tp244
(I0
I18
tp245
s(I0
I24
I2
tp246
(I7
I15
tp247
s(I0
I45
I0
tp248
(I1
I27
tp249
s(I0
I52
I2
tp250
(I3
I8
tp251
s(I0
I27
I0
tp252
(I4
I29
tp253
s(I0
I30
I2
tp254
(I7
I13
tp255
s(I0
I36
I2
tp256
(I3
I9
tp257
s(I0
I42
I0
tp258
(I1
I21
tp259
s(I0
I24
I0
tp260
(I4
I32
tp261
s(I0
I45
I2
tp262
(I3
I27
tp263
s(I0
I62
I1
tp264
(I0
I2
tp265
s(I0
I49
I1
tp266
(I0
I30
tp267
s(I0
I5
I0
tp268
(I0
I29
tp269
s(I0
I42
I2
tp270
(I3
I21
tp271
s(I0
I59
I3
tp272
(I2
I8
tp273
s(I0
I2
I2
tp274
(I6
I23
tp275
s(I0
I62
I3
tp276
(I2
I2
tp277
s(I0
I46
I2
tp278
(I3
I29
tp279
s(I0
I15
I2
tp280
(I6
I2
tp281
s(I0
I49
I3
tp282
(I2
I30
tp283
s(I0
I2
I0
tp284
(I1
I5
tp285
s(I0
I56
I1
tp286
(I0
I14
tp287
s(I0
I8
I3
tp288
(I7
I18
tp289
s(I0
I22
I1
tp290
(I5
I32
tp291
s(I0
I59
I1
tp292
(I0
I8
tp293
s(I0
I12
I2
tp294
(I6
I29
tp295
s(I0
I15
I0
tp296
(I4
I9
tp297
s(I0
I16
I3
tp298
(I7
I26
tp299
s(I0
I38
I0
tp300
(I1
I13
tp301
s(I0
I1
I2
tp302
(I6
I8
tp303
s(I0
I22
I3
tp304
(I7
I32
tp305
s(I0
I32
I3
tp306
(I7
I8
tp307
s(I0
I12
I0
tp308
(I4
I10
tp309
s(I0
I34
I1
tp310
(I4
I20
tp311
s(I0
I16
I1
tp312
(I5
I30
tp313
s(I0
I37
I1
tp314
(I0
I21
tp315
s(I0
I19
I1
tp316
(I5
I1
tp317
s(I0
I44
I3
tp318
(I2
I7
tp319
s(I0
I47
I3
tp320
(I2
I1
tp321
s(I0
I35
I3
tp322
(I7
I11
tp323
s(I0
I5
I1
tp324
(I5
I11
tp325
s(I0
I51
I2
tp326
(I3
I6
tp327
s(I0
I37
I3
tp328
(I2
I21
tp329
s(I0
I54
I0
tp330
(I1
I12
tp331
s(I0
I21
I1
tp332
(I5
I8
tp333
s(I0
I44
I1
tp334
(I0
I7
tp335
s(I0
I56
I0
tp336
(I1
I18
tp337
s(I0
I26
I1
tp338
(I5
I25
tp339
s(I0
I47
I1
tp340
(I0
I1
tp341
s(I0
I29
I1
tp342
(I5
I27
tp343
s(I0
I51
I0
tp344
(I1
I6
tp345
s(I0
I4
I3
tp346
(I2
I29
tp347
s(I0
I54
I2
tp348
(I3
I12
tp349
s(I0
I7
I3
tp350
(I3
I1
tp351
s(I0
I13
I1
tp352
(I5
I3
tp353
s(I0
I26
I3
tp354
(I7
I2
tp355
s(I0
I48
I0
tp356
(I1
I0
tp357
s(I0
I4
I1
tp358
(I5
I26
tp359
s(I0
I41
I1
tp360
(I0
I13
tp361
s(I0
I7
I1
tp362
(I5
I5
tp363
s(I0
I61
I0
tp364
(I1
I28
tp365
s(I0
I36
I0
tp366
(I1
I9
tp367
s(I0
I39
I2
tp368
(I3
I15
tp369
s(I0
I41
I3
tp370
(I2
I13
tp371
s(I0
I60
I2
tp372
(I3
I26
tp373
s(I0
I61
I2
tp374
(I3
I28
tp375
s(I0
I17
I0
tp376
(I4
I7
tp377
s(I0
I14
I1
tp378
(I5
I17
tp379
s(I0
I1
I1
tp380
(I5
I7
tp381
s(I0
I56
I3
tp382
(I2
I14
tp383
s(I0
I39
I0
tp384
(I1
I15
tp385
s(I0
I21
I0
tp386
(I4
I3
tp387
s(I0
I58
I2
tp388
(I3
I22
tp389
s(I0
I11
I3
tp390
(I7
I19
tp391
s(I0
I14
I3
tp392
(I7
I24
tp393
s(I0
I9
I0
tp394
(I4
I15
tp395
s(I0
I31
I2
tp396
(I6
I30
tp397
s(I0
I1
I3
tp398
(I3
I7
tp399
s(I0
I18
I0
tp400
(I4
I4
tp401
s(I0
I8
I1
tp402
(I5
I13
tp403
s(I0
I11
I1
tp404
(I5
I15
tp405
s(I0
I28
I2
tp406
(I6
I28
tp407
s(I0
I33
I0
tp408
(I4
I23
tp409
s(I0
I31
I0
tp410
(I4
I25
tp411
s(I0
I18
I2
tp412
(I6
I31
tp413
s(I0
I43
I2
tp414
(I3
I23
tp415
s(I0
I8
I0
tp416
(I4
I14
tp417
s(I0
I46
I0
tp418
(I1
I29
tp419
s(I0
I28
I0
tp420
(I4
I28
tp421
s(I0
I33
I2
tp422
(I7
I12
tp423
s(I0
I50
I1
tp424
(I0
I28
tp425
s(I0
I53
I1
tp426
(I0
I22
tp427
s(I0
I43
I0
tp428
(I1
I23
tp429
s(I0
I34
I3
tp430
(I7
I10
tp431
s(I0
I25
I0
tp432
(I4
I31
tp433
s(I0
I13
I3
tp434
(I7
I21
tp435
s(I0
I63
I3
tp436
(I2
I0
tp437
s(I0
I9
I1
tp438
(I5
I18
tp439
s(I0
I50
I3
tp440
(I2
I28
tp441
s(I0
I3
I2
tp442
(I6
I6
tp443
s(I0
I40
I0
tp444
(I1
I17
tp445
s(I0
I6
I0
tp446
(I1
I1
tp447
s(I0
I60
I1
tp448
(I0
I6
tp449
s(I0
I63
I1
tp450
(I0
I0
tp451
s(I0
I0
I2
tp452
(I6
I25
tp453
sS'ncols'
p454
I4
s(I0
I3
I0
tp455
(I0
I27
tp456
s(I0
I20
I3
tp457
(I7
I30
tp458
s(I0
I6
I2
tp459
(I6
I27
tp460
s(I0
I23
I3
tp461
(I7
I31
tp462
sS'nshanks'
p463
I1
s(I0
I52
I1
tp464
(I0
I24
tp465
s(I0
I0
I0
tp466
(I1
I7
tp467
s(I0
I29
I0
tp468
(I4
I27
tp469
s(I0
I38
I1
tp470
(I0
I19
tp471
s(I0
I20
I1
tp472
(I5
I21
tp473
s(I0
I57
I1
tp474
(I0
I12
tp475
s(I0
I23
I1
tp476
(I5
I23
tp477
s(I0
I13
I0
tp478
(I4
I11
tp479
s(I0
I9
I2
tp480
(I6
I4
tp481
s(I0
I38
I3
tp482
(I2
I19
tp483
s(I0
I53
I0
tp484
(I1
I10
tp485
s(I0
I55
I2
tp486
(I3
I14
tp487
s(I0
I57
I3
tp488
(I2
I12
tp489
s(I0
I10
I0
tp490
(I4
I12
tp491
s(I0
I13
I2
tp492
(I6
I18
tp493
s(I0
I30
I1
tp494
(I5
I2
tp495
s(I0
I35
I1
tp496
(I5
I31
tp497
s(I0
I17
I1
tp498
(I5
I19
tp499
s(I0
I55
I0
tp500
(I1
I14
tp501
s(I0
I24
I3
tp502
(I7
I0
tp503
s(I0
I10
I2
tp504
(I6
I14
tp505
s(I0
I27
I3
tp506
(I7
I3
tp507
s(I0
I52
I0
tp508
(I1
I8
tp509
s(I0
I30
I3
tp510
(I7
I6
tp511
s(I0
I32
I1
tp512
(I5
I29
tp513
s(I0
I48
I2
tp514
(I3
I0
tp515
s.