(dp0
(I0
I42
I1
tp1
(I3
I21
tp2
s(I0
I24
I1
tp3
(I2
I14
tp4
s(I0
I45
I1
tp5
(I3
I27
tp6
s(I0
I27
I1
tp7
(I2
I8
tp8
s(I0
I49
I0
tp9
(I0
I30
tp10
s(I0
I62
I0
tp11
(I0
I2
tp12
s(I0
I2
I1
tp13
(I2
I5
tp14
s(I0
I5
I1
tp15
(I2
I11
tp16
s(I0
I59
I0
tp17
(I0
I8
tp18
s(I0
I56
I0
tp19
(I0
I14
tp20
s(I0
I22
I0
tp21
(I1
I20
tp22
s(I0
I12
I1
tp23
(I2
I25
tp24
s(I0
I15
I1
tp25
(I2
I31
tp26
s(I0
I37
I0
tp27
(I0
I11
tp28
s(I0
I19
I0
tp29
(I1
I26
tp30
s(I0
I34
I0
tp31
(I0
I5
tp32
s(I0
I16
I0
tp33
(I1
I32
tp34
s(I0
I54
I1
tp35
(I3
I20
tp36
s(I0
I9
I1
tp37
(I2
I19
tp38
s(I0
I47
I0
tp39
(I0
I31
tp40
s(I0
I29
I0
tp41
(I1
I4
tp42
sS'nrows'
p43
I64
s(I0
I44
I0
tp44
(I0
I25
tp45
s(I0
I26
I0
tp46
(I1
I10
tp47
s(I0
I48
I1
tp48
(I3
I32
tp49
s(I0
I51
I1
tp50
(I3
I26
tp51
s(I0
I41
I0
tp52
(I0
I19
tp53
s(I0
I7
I0
tp54
(I1
I15
tp55
s(I0
I4
I0
tp56
(I1
I9
tp57
s(I0
I58
I1
tp58
(I3
I10
tp59
s(I0
I61
I1
tp60
(I3
I4
tp61
s(I0
I1
I0
tp62
(I1
I3
tp63
s(I0
I14
I0
tp64
(I1
I29
tp65
s(I0
I36
I1
tp66
(I3
I9
tp67
s(I0
I18
I1
tp68
(I2
I28
tp69
s(I0
I39
I1
tp70
(I3
I15
tp71
s(I0
I21
I1
tp72
(I2
I22
tp73
s(I0
I11
I0
tp74
(I1
I23
tp75
s(I0
I8
I0
tp76
(I1
I17
tp77
s(I0
I46
I1
tp78
(I3
I29
tp79
s(I0
I28
I1
tp80
(I2
I6
tp81
s(I0
I33
I1
tp82
(I3
I3
tp83
s(I0
I31
I1
tp84
(I2
I0
tp85
s(I0
I53
I0
tp86
(I0
I22
tp87
s(I0
I50
I0
tp88
(I0
I28
tp89
s(I0
I40
I1
tp90
(I3
I17
tp91
s(I0
I6
I1
tp92
(I2
I13
tp93
s(I0
I43
I1
tp94
(I3
I23
tp95
s(I0
I25
I1
tp96
(I2
I12
tp97
s(I0
I63
I0
tp98
(I0
I0
tp99
s(I0
I60
I0
tp100
(I0
I6
tp101
s(I0
I0
I1
tp102
(I2
I1
tp103
s(I0
I3
I1
tp104
(I2
I7
tp105
s(I0
I57
I0
tp106
(I0
I12
tp107
s(I0
I23
I0
tp108
(I1
I18
tp109
s(I0
I38
I0
tp110
(I0
I13
tp111
s(I0
I20
I0
tp112
(I1
I24
tp113
s(I0
I10
I1
tp114
(I2
I21
tp115
s(I0
I13
I1
tp116
(I2
I27
tp117
s(I0
I35
I0
tp118
(I0
I7
tp119
s(I0
I17
I0
tp120
(I1
I30
tp121
s(I0
I32
I0
tp122
(I0
I1
tp123
s(I0
I30
I0
tp124
(I1
I2
tp125
s(I0
I52
I1
tp126
(I3
I24
tp127
s(I0
I55
I1
tp128
(I3
I18
tp129
s(I0
I45
I0
tp130
(I0
I27
tp131
s(I0
I27
I0
tp132
(I1
I8
tp133
s(I0
I42
I0
tp134
(I0
I21
tp135
s(I0
I24
I0
tp136
(I1
I14
tp137
s(I0
I62
I1
tp138
(I3
I2
tp139
s(I0
I49
I1
tp140
(I3
I30
tp141
s(I0
I5
I0
tp142
(I1
I11
tp143
s(I0
I2
I0
tp144
(I1
I5
tp145
s(I0
I56
I1
tp146
(I3
I14
tp147
s(I0
I22
I1
tp148
(I2
I20
tp149
s(I0
I59
I1
tp150
(I3
I8
tp151
s(I0
I15
I0
tp152
(I1
I31
tp153
s(I0
I12
I0
tp154
(I1
I25
tp155
s(I0
I34
I1
tp156
(I3
I5
tp157
s(I0
I16
I1
tp158
(I2
I32
tp159
s(I0
I37
I1
tp160
(I3
I11
tp161
s(I0
I19
I1
tp162
(I2
I26
tp163
s(I0
I9
I0
tp164
(I1
I19
tp165
s(I0
I54
I0
tp166
(I0
I20
tp167
s(I0
I44
I1
tp168
(I3
I25
tp169
s(I0
I26
I1
tp170
(I2
I10
tp171
s(I0
I47
I1
tp172
(I3
I31
tp173
s(I0
I29
I1
tp174
(I2
I4
tp175
s(I0
I51
I0
tp176
(I0
I26
tp177
s(I0
I48
I0
tp178
(I0
I32
tp179
s(I0
I4
I1
tp180
(I2
I9
tp181
s(I0
I41
I1
tp182
(I3
I19
tp183
s(I0
I7
I1
tp184
(I2
I15
tp185
s(I0
I61
I0
tp186
(I0
I4
tp187
s(I0
I58
I0
tp188
(I0
I10
tp189
s(I0
I14
I1
tp190
(I2
I29
tp191
s(I0
I1
I1
tp192
(I2
I3
tp193
s(I0
I39
I0
tp194
(I0
I15
tp195
s(I0
I21
I0
tp196
(I1
I22
tp197
s(I0
I36
I0
tp198
(I0
I9
tp199
s(I0
I18
I0
tp200
(I1
I28
tp201
s(I0
I8
I1
tp202
(I2
I17
tp203
s(I0
I11
I1
tp204
(I2
I23
tp205
s(I0
I33
I0
tp206
(I0
I3
tp207
s(I0
I31
I0
tp208
(I1
I0
tp209
s(I0
I46
I0
tp210
(I0
I29
tp211
s(I0
I28
I0
tp212
(I1
I6
tp213
s(I0
I50
I1
tp214
(I3
I28
tp215
s(I0
I53
I1
tp216
(I3
I22
tp217
s(I0
I43
I0
tp218
(I0
I23
tp219
s(I0
I25
I0
tp220
(I1
I12
tp221
s(I0
I40
I0
tp222
(I0
I17
tp223
s(I0
I6
I0
tp224
(I1
I13
tp225
s(I0
I60
I1
tp226
(I3
I6
tp227
s(I0
I63
I1
tp228
(I3
I0
tp229
sS'ncols'
p230
I2
s(I0
I3
I0
tp231
(I1
I7
tp232
sS'nshanks'
p233
I1
s(I0
I0
I0
tp234
(I1
I1
tp235
s(I0
I38
I1
tp236
(I3
I13
tp237
s(I0
I20
I1
tp238
(I2
I24
tp239
s(I0
I57
I1
tp240
(I3
I12
tp241
s(I0
I23
I1
tp242
(I2
I18
tp243
s(I0
I13
I0
tp244
(I1
I27
tp245
s(I0
I10
I0
tp246
(I1
I21
tp247
s(I0
I32
I1
tp248
(I3
I1
tp249
s(I0
I30
I1
tp250
(I2
I2
tp251
s(I0
I35
I1
tp252
(I3
I7
tp253
s(I0
I17
I1
tp254
(I2
I30
tp255
s(I0
I55
I0
tp256
(I0
I18
tp257
s(I0
I52
I0
tp258
(I0
I24
tp259
s.